ccopy_reg
_reconstructor
p1
(cforest
Forest
p2
c__builtin__
object
p3
NtRp4
(dp5
S'num'
p6
I199
sS'cells'
p7
(dp8
(I0
I1
tp9
(lp10
g1
(cforest
Node
p11
g3
NtRp12
(dp13
S'iden'
p14
I1
sS'span'
p15
g9
sS'kset'
p16
c__builtin__
set
p17
((lp18
g1
(ctree
Tree
p19
g3
NtRp20
(dp21
S'word'
p22
S'no'
p23
sS'_punctuation'
p24
I00
sS'_terminal'
p25
I01
sS'tag_seq'
p26
(lp27
S'DT'
p28
asS'_str'
p29
S'(DT no)'
p30
sS'label'
p31
g28
sS'bin_width'
p32
NsS'word_seq'
p33
(lp34
g23
asg15
g9
sS'_root'
p35
I00
sbatRp36
sg25
I01
sS'cand'
p37
Nsg31
g28
sS'_spurious'
p38
I00
sS'edges'
p39
(lp40
sS'bestedge'
p41
Nsg22
g23
sS'klist'
p42
(lp43
(F-0
g20
tp44
asS'fixed'
p45
I01
sS'prob'
p46
F-0
sg35
I00
sS'size'
p47
I0
sbag1
(g11
g3
NtRp48
(dp49
g14
I2
sg15
(I0
I1
tp50
sg16
g17
((ltRp51
sg25
I00
sg37
Nsg31
S'NP'
p52
sg38
I00
sg39
(lp53
g1
(cforest
Hyperedge
p54
g3
NtRp55
(dp56
S'head'
p57
g48
sS'insideprob'
p58
F0.57760400000000001
sS'subs'
p59
(lp60
g12
asg46
F0.57760400000000001
sbasg41
g55
sg42
(lp61
sg45
I00
sg46
F0.57760400000000001
sg35
I00
sg47
I1
sbag1
(g11
g3
NtRp62
(dp63
g14
I3
sg15
(I0
I1
tp64
sg16
g17
((lp65
g1
(g19
g3
NtRp66
(dp67
g22
g23
sg24
I00
sg25
I01
sg26
(lp68
S'RB'
p69
asg29
S'(RB no)'
p70
sg31
g69
sg32
Nsg33
(lp71
g23
asg15
g64
sg35
I00
sbatRp72
sg25
I01
sg37
Nsg31
g69
sg38
I00
sg39
(lp73
sg41
Nsg22
g23
sg42
(lp74
(F-0
g66
tp75
asg45
I01
sg46
F-0
sg35
I00
sg47
I0
sbag1
(g11
g3
NtRp76
(dp77
g14
I4
sg15
(I0
I1
tp78
sg16
g17
((ltRp79
sg25
I00
sg37
Nsg31
S'NP'
p80
sg38
I00
sg39
(lp81
g1
(g54
g3
NtRp82
(dp83
g57
g76
sg58
F1.04366
sg59
(lp84
g62
asg46
F1.04366
sbasg41
g82
sg42
(lp85
sg45
I00
sg46
F1.04366
sg35
I00
sg47
I1
sbag1
(g11
g3
NtRp86
(dp87
g14
I5
sg15
(I0
I1
tp88
sg16
g17
((ltRp89
sg25
I00
sg37
Nsg31
S'NP'
p90
sg38
I01
sg39
(lp91
g1
(g54
g3
NtRp92
(dp93
g57
g86
sg58
F24.856904
sg59
(lp94
g48
asg46
F24.279299999999999
sbag1
(g54
g3
NtRp95
(dp96
g57
g86
sg58
F47.037559999999999
sg59
(lp97
g76
asg46
F45.993899999999996
sbasg41
g92
sg42
(lp98
sg45
I00
sg46
F24.8569
sg35
I00
sg47
I2
sbag1
(g11
g3
NtRp99
(dp100
g14
I181
sg15
(I0
I1
tp101
sg16
g17
((ltRp102
sg25
I00
sg37
Nsg31
S'ADVP'
p103
sg38
I00
sg39
(lp104
g1
(g54
g3
NtRp105
(dp106
g57
g99
sg58
F3.2013500000000001
sg59
(lp107
g62
asg46
F3.2013500000000001
sbasg41
g105
sg42
(lp108
sg45
I00
sg46
F3.2013500000000001
sg35
I00
sg47
I1
sbag1
(g11
g3
NtRp109
(dp110
g14
I182
sg15
(I0
I1
tp111
sg16
g17
((ltRp112
sg25
I00
sg37
Nsg31
S'ADVP'
p113
sg38
I01
sg39
(lp114
g1
(g54
g3
NtRp115
(dp116
g57
g109
sg58
F26.422550000000001
sg59
(lp117
g99
asg46
F23.2212
sbasg41
g115
sg42
(lp118
sg45
I00
sg46
F26.422599999999999
sg35
I00
sg47
I1
sbag1
(g11
g3
NtRp119
(dp120
g14
I184
sg15
(I0
I1
tp121
sg16
g17
((ltRp122
sg25
I00
sg37
Nsg31
S'NP'
p123
sg38
I00
sg39
(lp124
g1
(g54
g3
NtRp125
(dp126
g57
g119
sg58
F0.767239
sg59
(lp127
g12
asg46
F0.767239
sbasg41
g125
sg42
(lp128
sg45
I00
sg46
F0.767239
sg35
I00
sg47
I1
sbag1
(g11
g3
NtRp129
(dp130
g14
I189
sg15
(I0
I1
tp131
sg16
g17
((ltRp132
sg25
I00
sg37
Nsg31
S'NP'
p133
sg38
I00
sg39
(lp134
g1
(g54
g3
NtRp135
(dp136
g57
g129
sg58
F1.04366
sg59
(lp137
g62
asg46
F1.04366
sbasg41
g135
sg42
(lp138
sg45
I00
sg46
F1.04366
sg35
I00
sg47
I1
sbag1
(g11
g3
NtRp139
(dp140
g14
I195
sg15
(I0
I1
tp141
sg16
g17
((ltRp142
sg25
I00
sg37
Nsg31
S'RB'
p143
sg38
I01
sg39
(lp144
g1
(g54
g3
NtRp145
(dp146
g57
g139
sg58
F16.233799999999999
sg59
(lp147
g62
asg46
F16.233799999999999
sbasg41
g145
sg42
(lp148
sg45
I00
sg46
F16.233799999999999
sg35
I00
sg47
I1
sbas(I1
I2
tp149
(lp150
g1
(g11
g3
NtRp151
(dp152
g14
I6
sg15
g149
sg16
g17
((lp153
g1
(g19
g3
NtRp154
(dp155
g22
S','
sg24
I01
sg25
I01
sg26
(lp156
S','
asg29
S'(, ,)'
p157
sg31
S','
sg32
Nsg33
(lp158
S','
asg15
g149
sg35
I00
sbatRp159
sg25
I01
sg37
Nsg31
S','
sg38
I00
sg39
(lp160
sg41
Nsg22
S','
sg42
(lp161
(F-0
g154
tp162
asg45
I01
sg46
F-0
sg35
I00
sg47
I0
sbag1
(g11
g3
NtRp163
(dp164
g14
I7
sg15
(I1
I2
tp165
sg16
g17
((ltRp166
sg25
I00
sg37
Nsg31
S','
sg38
I01
sg39
(lp167
g1
(g54
g3
NtRp168
(dp169
g57
g163
sg58
F-9.2288200000000007
sg59
(lp170
g151
asg46
F-9.2288200000000007
sbasg41
g168
sg42
(lp171
sg45
I00
sg46
F-9.2288200000000007
sg35
I00
sg47
I1
sbag1
(g11
g3
NtRp172
(dp173
g14
I183
sg15
(I1
I2
tp174
sg16
g17
((ltRp175
sg25
I00
sg37
Nsg31
S','
sg38
I01
sg39
(lp176
g1
(g54
g3
NtRp177
(dp178
g57
g172
sg58
F-9.2288200000000007
sg59
(lp179
g151
asg46
F-9.2288200000000007
sbasg41
g177
sg42
(lp180
sg45
I00
sg46
F-9.2288200000000007
sg35
I00
sg47
I1
sbag1
(g11
g3
NtRp181
(dp182
g14
I185
sg15
(I1
I2
tp183
sg16
g17
((ltRp184
sg25
I00
sg37
Nsg31
S','
sg38
I01
sg39
(lp185
g1
(g54
g3
NtRp186
(dp187
g57
g181
sg58
F-9.2274700000000003
sg59
(lp188
g151
asg46
F-9.2274700000000003
sbasg41
g186
sg42
(lp189
sg45
I00
sg46
F-9.2274700000000003
sg35
I00
sg47
I1
sbag1
(g11
g3
NtRp190
(dp191
g14
I190
sg15
(I1
I2
tp192
sg16
g17
((ltRp193
sg25
I00
sg37
Nsg31
S','
sg38
I01
sg39
(lp194
g1
(g54
g3
NtRp195
(dp196
g57
g190
sg58
F-9.2274700000000003
sg59
(lp197
g151
asg46
F-9.2274700000000003
sbasg41
g195
sg42
(lp198
sg45
I00
sg46
F-9.2274700000000003
sg35
I00
sg47
I1
sbag1
(g11
g3
NtRp199
(dp200
g14
I196
sg15
(I1
I2
tp201
sg16
g17
((ltRp202
sg25
I00
sg37
Nsg31
S','
sg38
I01
sg39
(lp203
g1
(g54
g3
NtRp204
(dp205
g57
g199
sg58
F-9.2288200000000007
sg59
(lp206
g151
asg46
F-9.2288200000000007
sbasg41
g204
sg42
(lp207
sg45
I00
sg46
F-9.2288200000000007
sg35
I00
sg47
I1
sbas(I4
I7
tp208
(lp209
g1
(g11
g3
NtRp210
(dp211
g14
I69
sg15
g208
sg16
g17
((ltRp212
sg25
I00
sg37
Nsg31
S'ADVP'
p213
sg38
I00
sg39
(lp214
g1
(g54
g3
NtRp215
(dp216
g57
g210
sg58
F27.834350000000001
sg59
(lp217
g1
(g11
g3
NtRp218
(dp219
g14
I12
sg15
(I4
I5
tp220
sg16
g17
((lp221
g1
(g19
g3
NtRp222
(dp223
g22
S"n't"
p224
sg24
I00
sg25
I01
sg26
(lp225
S'RB'
p226
asg29
S"(RB n't)"
p227
sg31
g226
sg32
Nsg33
(lp228
g224
asg15
g220
sg35
I00
sbatRp229
sg25
I01
sg37
Nsg31
g226
sg38
I00
sg39
(lp230
sg41
Nsg22
g224
sg42
(lp231
(F-0
g222
tp232
asg45
I01
sg46
F-0
sg35
I00
sg47
I0
sbag1
(g11
g3
NtRp233
(dp234
g14
I36
sg15
(I5
I7
tp235
sg16
g17
((ltRp236
sg25
I00
sg37
Nsg31
S'NP'
p237
sg38
I01
sg39
(lp238
g1
(g54
g3
NtRp239
(dp240
g57
g233
sg58
F61.198400000000007
sg59
(lp241
g1
(g11
g3
NtRp242
(dp243
g14
I30
sg15
(I5
I7
tp244
sg16
g17
((ltRp245
sg25
I00
sg37
Nsg31
S'NP'
p246
sg38
I00
sg39
(lp247
g1
(g54
g3
NtRp248
(dp249
g57
g242
sg58
F34.463770000000004
sg59
(lp250
g1
(g11
g3
NtRp251
(dp252
g14
I27
sg15
(I5
I6
tp253
sg16
g17
((ltRp254
sg25
I00
sg37
Nsg31
S'NP'
p255
sg38
I00
sg39
(lp256
g1
(g54
g3
NtRp257
(dp258
g57
g251
sg58
F1.99207
sg59
(lp259
g1
(g11
g3
NtRp260
(dp261
g14
I14
sg15
(I5
I6
tp262
sg16
g17
((lp263
g1
(g19
g3
NtRp264
(dp265
g22
S'black'
p266
sg24
I00
sg25
I01
sg26
(lp267
S'NNP'
p268
asg29
S'(NNP black)'
p269
sg31
g268
sg32
Nsg33
(lp270
g266
asg15
g262
sg35
I00
sbatRp271
sg25
I01
sg37
Nsg31
g268
sg38
I00
sg39
(lp272
sg41
Nsg22
g266
sg42
(lp273
(F-0
g264
tp274
asg45
I01
sg46
F-0
sg35
I00
sg47
I0
sbasg46
F1.99207
sbasg41
g257
sg42
(lp275
sg45
I00
sg46
F1.99207
sg35
I00
sg47
I1
sbag1
(g11
g3
NtRp276
(dp277
g14
I29
sg15
(I6
I7
tp278
sg16
g17
((ltRp279
sg25
I00
sg37
Nsg31
S'NP'
p280
sg38
I01
sg39
(lp281
g1
(g54
g3
NtRp282
(dp283
g57
g276
sg58
F13.269580000000001
sg59
(lp284
g1
(g11
g3
NtRp285
(dp286
g14
I28
sg15
(I6
I7
tp287
sg16
g17
((ltRp288
sg25
I00
sg37
Nsg31
S'NP'
p289
sg38
I00
sg39
(lp290
g1
(g54
g3
NtRp291
(dp292
g57
g285
sg58
F-0.26912000000000003
sg59
(lp293
g1
(g11
g3
NtRp294
(dp295
g14
I16
sg15
(I6
I7
tp296
sg16
g17
((lp297
g1
(g19
g3
NtRp298
(dp299
g22
S'monday'
p300
sg24
I00
sg25
I01
sg26
(lp301
S'NNP'
p302
asg29
S'(NNP monday)'
p303
sg31
g302
sg32
Nsg33
(lp304
g300
asg15
g296
sg35
I00
sbatRp305
sg25
I01
sg37
Nsg31
g302
sg38
I00
sg39
(lp306
sg41
Nsg22
g300
sg42
(lp307
(F-0
g298
tp308
asg45
I01
sg46
F-0
sg35
I00
sg47
I0
sbasg46
F-0.26912000000000003
sbasg41
g291
sg42
(lp309
sg45
I00
sg46
F-0.26912000000000003
sg35
I00
sg47
I1
sbasg46
F13.5387
sbasg41
g282
sg42
(lp310
sg45
I00
sg46
F13.269600000000001
sg35
I00
sg47
I1
sbasg46
F19.202100000000002
sbasg41
g248
sg42
(lp311
sg45
I00
sg46
F34.463700000000003
sg35
I00
sg47
I1
sbasg46
F26.7347
sbag1
(g54
g3
NtRp312
(dp313
g57
g233
sg58
F24.7791
sg59
(lp314
g1
(g11
g3
NtRp315
(dp316
g14
I35
sg15
(I5
I7
tp317
sg16
g17
((ltRp318
sg25
I00
sg37
Nsg31
S'NP'
p319
sg38
I00
sg39
(lp320
g1
(g54
g3
NtRp321
(dp322
g57
g315
sg58
F11.70942
sg59
(lp323
g1
(g11
g3
NtRp324
(dp325
g14
I31
sg15
(I5
I6
tp326
sg16
g17
((ltRp327
sg25
I00
sg37
Nsg31
S'NNP'
p328
sg38
I01
sg39
(lp329
g1
(g54
g3
NtRp330
(dp331
g57
g324
sg58
F1.7034199999999999
sg59
(lp332
g260
asg46
F1.7034199999999999
sbasg41
g330
sg42
(lp333
sg45
I00
sg46
F1.7034199999999999
sg35
I00
sg47
I1
sbag294
asg46
F10.006
sbag1
(g54
g3
NtRp334
(dp335
g57
g315
sg58
F26.484000000000002
sg59
(lp336
g1
(g11
g3
NtRp337
(dp338
g14
I32
sg15
(I5
I6
tp339
sg16
g17
((ltRp340
sg25
I00
sg37
Nsg31
S'JJ'
p341
sg38
I01
sg39
(lp342
g1
(g54
g3
NtRp343
(dp344
g57
g337
sg58
F10.6248
sg59
(lp345
g1
(g11
g3
NtRp346
(dp347
g14
I21
sg15
(I5
I6
tp348
sg16
g17
((lp349
g1
(g19
g3
NtRp350
(dp351
g22
g266
sg24
I00
sg25
I01
sg26
(lp352
S'JJ'
p353
asg29
S'(JJ black)'
p354
sg31
g353
sg32
Nsg33
(lp355
g266
asg15
g348
sg35
I00
sbatRp356
sg25
I01
sg37
Nsg31
g353
sg38
I00
sg39
(lp357
sg41
Nsg22
g266
sg42
(lp358
(F-0
g350
tp359
asg45
I01
sg46
F-0
sg35
I00
sg47
I0
sbasg46
F10.6248
sbasg41
g343
sg42
(lp360
sg45
I00
sg46
F10.6248
sg35
I00
sg47
I1
sbag294
asg46
F15.8592
sbag1
(g54
g3
NtRp361
(dp362
g57
g315
sg58
F46.318600000000004
sg59
(lp363
g1
(g11
g3
NtRp364
(dp365
g14
I34
sg15
(I5
I6
tp366
sg16
g17
((ltRp367
sg25
I00
sg37
Nsg31
S'NP'
p368
sg38
I01
sg39
(lp369
g1
(g54
g3
NtRp370
(dp371
g57
g364
sg58
F29.025100000000002
sg59
(lp372
g1
(g11
g3
NtRp373
(dp374
g14
I33
sg15
(I5
I6
tp375
sg16
g17
((ltRp376
sg25
I00
sg37
Nsg31
S'NP'
p377
sg38
I00
sg39
(lp378
g1
(g54
g3
NtRp379
(dp380
g57
g373
sg58
F3.1821999999999999
sg59
(lp381
g260
asg46
F3.1821999999999999
sbasg41
g379
sg42
(lp382
sg45
I00
sg46
F3.1821999999999999
sg35
I00
sg47
I1
sbasg46
F25.8429
sbasg41
g370
sg42
(lp383
sg45
I00
sg46
F29.025099999999998
sg35
I00
sg47
I1
sbag294
asg46
F17.293500000000002
sbasg41
g321
sg42
(lp384
sg45
I00
sg46
F11.7094
sg35
I00
sg47
I3
sbasg46
F13.069699999999999
sbasg41
g312
sg42
(lp385
sg45
I00
sg46
F24.779199999999999
sg35
I00
sg47
I2
sbasg46
F3.0551499999999998
sbag1
(g54
g3
NtRp386
(dp387
g57
g210
sg58
F46.514099999999999
sg59
(lp388
g218
ag1
(g11
g3
NtRp389
(dp390
g14
I68
sg15
(I5
I7
tp391
sg16
g17
((ltRp392
sg25
I00
sg37
Nsg31
S'SBAR'
p393
sg38
I01
sg39
(lp394
g1
(g54
g3
NtRp395
(dp396
g57
g389
sg58
F87.300600000000003
sg59
(lp397
g1
(g11
g3
NtRp398
(dp399
g14
I51
sg15
(I5
I7
tp400
sg16
g17
((ltRp401
sg25
I00
sg37
Nsg31
S'SBAR'
p402
sg38
I00
sg39
(lp403
g1
(g54
g3
NtRp404
(dp405
g57
g398
sg58
F30.347299999999997
sg59
(lp406
g1
(g11
g3
NtRp407
(dp408
g14
I50
sg15
(I5
I7
tp409
sg16
g17
((ltRp410
sg25
I00
sg37
Nsg31
S'S'
sg38
I00
sg39
(lp411
g1
(g54
g3
NtRp412
(dp413
g57
g407
sg58
F29.634530000000002
sg59
(lp414
g1
(g11
g3
NtRp415
(dp416
g14
I43
sg15
(I5
I7
tp417
sg16
g17
((ltRp418
sg25
I00
sg37
Nsg31
S'ADJP'
p419
sg38
I00
sg39
(lp420
g1
(g54
g3
NtRp421
(dp422
g57
g415
sg58
F42.008229999999998
sg59
(lp423
g346
ag1
(g11
g3
NtRp424
(dp425
g14
I37
sg15
(I6
I7
tp426
sg16
g17
((ltRp427
sg25
I00
sg37
Nsg31
S'NNP'
p428
sg38
I01
sg39
(lp429
g1
(g54
g3
NtRp430
(dp431
g57
g424
sg58
F9.9784299999999995
sg59
(lp432
g294
asg46
F9.9784299999999995
sbasg41
g430
sg42
(lp433
sg45
I00
sg46
F9.9784299999999995
sg35
I00
sg47
I1
sbasg46
F32.029800000000002
sbag1
(g54
g3
NtRp434
(dp435
g57
g415
sg58
F23.68882
sg59
(lp436
g346
ag1
(g11
g3
NtRp437
(dp438
g14
I39
sg15
(I6
I7
tp439
sg16
g17
((ltRp440
sg25
I00
sg37
Nsg31
S'NP'
p441
sg38
I01
sg39
(lp442
g1
(g54
g3
NtRp443
(dp444
g57
g437
sg58
F18.749230000000001
sg59
(lp445
g1
(g11
g3
NtRp446
(dp447
g14
I38
sg15
(I6
I7
tp448
sg16
g17
((ltRp449
sg25
I00
sg37
Nsg31
S'NP'
p450
sg38
I00
sg39
(lp451
g1
(g54
g3
NtRp452
(dp453
g57
g446
sg58
F2.88103
sg59
(lp454
g294
asg46
F2.88103
sbasg41
g452
sg42
(lp455
sg45
I00
sg46
F2.88103
sg35
I00
sg47
I1
sbasg46
F15.8682
sbasg41
g443
sg42
(lp456
sg45
I00
sg46
F18.749199999999998
sg35
I00
sg47
I1
sbasg46
F4.9396199999999997
sbag1
(g54
g3
NtRp457
(dp458
g57
g415
sg58
F32.565370000000001
sg59
(lp459
g346
ag1
(g11
g3
NtRp460
(dp461
g14
I42
sg15
(I6
I7
tp462
sg16
g17
((ltRp463
sg25
I00
sg37
Nsg31
S'S'
sg38
I01
sg39
(lp464
g1
(g54
g3
NtRp465
(dp466
g57
g460
sg58
F27.632710000000003
sg59
(lp467
g1
(g11
g3
NtRp468
(dp469
g14
I41
sg15
(I6
I7
tp470
sg16
g17
((ltRp471
sg25
I00
sg37
Nsg31
S'S'
sg38
I00
sg39
(lp472
g1
(g54
g3
NtRp473
(dp474
g57
g468
sg58
F2.3085110000000002
sg59
(lp475
g1
(g11
g3
NtRp476
(dp477
g14
I40
sg15
(I6
I7
tp478
sg16
g17
((ltRp479
sg25
I00
sg37
Nsg31
S'NP'
p480
sg38
I00
sg39
(lp481
g1
(g54
g3
NtRp482
(dp483
g57
g476
sg58
F1.79159
sg59
(lp484
g294
asg46
F1.79159
sbasg41
g482
sg42
(lp485
sg45
I00
sg46
F1.79159
sg35
I00
sg47
I1
sbasg46
F0.51692099999999996
sbasg41
g473
sg42
(lp486
sg45
I00
sg46
F2.3085100000000001
sg35
I00
sg47
I1
sbasg46
F25.324200000000001
sbasg41
g465
sg42
(lp487
sg45
I00
sg46
F27.6327
sg35
I00
sg47
I1
sbasg46
F4.9326699999999999
sbasg41
g434
sg42
(lp488
sg45
I00
sg46
F23.6889
sg35
I00
sg47
I3
sbasg46
F5.9456300000000004
sbag1
(g54
g3
NtRp489
(dp490
g57
g407
sg58
F19.674199999999999
sg59
(lp491
g1
(g11
g3
NtRp492
(dp493
g14
I49
sg15
(I5
I7
tp494
sg16
g17
((ltRp495
sg25
I00
sg37
Nsg31
S'VP'
p496
sg38
I00
sg39
(lp497
g1
(g54
g3
NtRp498
(dp499
g57
g492
sg58
F10.032671000000001
sg59
(lp500
g346
ag1
(g11
g3
NtRp501
(dp502
g14
I45
sg15
(I6
I7
tp503
sg16
g17
((ltRp504
sg25
I00
sg37
Nsg31
S'NP'
p505
sg38
I01
sg39
(lp506
g1
(g54
g3
NtRp507
(dp508
g57
g501
sg58
F10.233093999999999
sg59
(lp509
g1
(g11
g3
NtRp510
(dp511
g14
I44
sg15
(I6
I7
tp512
sg16
g17
((ltRp513
sg25
I00
sg37
Nsg31
S'NP'
p514
sg38
I00
sg39
(lp515
g1
(g54
g3
NtRp516
(dp517
g57
g510
sg58
F0.23417399999999999
sg59
(lp518
g294
asg46
F0.23417399999999999
sbasg41
g516
sg42
(lp519
sg45
I00
sg46
F0.23417399999999999
sg35
I00
sg47
I1
sbasg46
F9.99892
sbasg41
g507
sg42
(lp520
sg45
I00
sg46
F10.2331
sg35
I00
sg47
I1
sbasg46
F-0.200429
sbag1
(g54
g3
NtRp521
(dp522
g57
g492
sg58
F46.8628
sg59
(lp523
g346
ag1
(g11
g3
NtRp524
(dp525
g14
I48
sg15
(I6
I7
tp526
sg16
g17
((ltRp527
sg25
I00
sg37
Nsg31
S'S'
sg38
I01
sg39
(lp528
g1
(g54
g3
NtRp529
(dp530
g57
g524
sg58
F34.55603
sg59
(lp531
g1
(g11
g3
NtRp532
(dp533
g14
I47
sg15
(I6
I7
tp534
sg16
g17
((ltRp535
sg25
I00
sg37
Nsg31
S'S'
sg38
I00
sg39
(lp536
g1
(g54
g3
NtRp537
(dp538
g57
g532
sg58
F1.882029
sg59
(lp539
g1
(g11
g3
NtRp540
(dp541
g14
I46
sg15
(I6
I7
tp542
sg16
g17
((ltRp543
sg25
I00
sg37
Nsg31
S'NP'
p544
sg38
I00
sg39
(lp545
g1
(g54
g3
NtRp546
(dp547
g57
g540
sg58
F1.7008399999999999
sg59
(lp548
g294
asg46
F1.7008399999999999
sbasg41
g546
sg42
(lp549
sg45
I00
sg46
F1.7008399999999999
sg35
I00
sg47
I1
sbasg46
F0.18118899999999999
sbasg41
g537
sg42
(lp550
sg45
I00
sg46
F1.8820300000000001
sg35
I00
sg47
I1
sbasg46
F32.673999999999999
sbasg41
g529
sg42
(lp551
sg45
I00
sg46
F34.555999999999997
sg35
I00
sg47
I1
sbasg46
F12.306800000000001
sbasg41
g498
sg42
(lp552
sg45
I00
sg46
F10.0327
sg35
I00
sg47
I2
sbasg46
F9.6415000000000006
sbasg41
g489
sg42
(lp553
sg45
I00
sg46
F19.674199999999999
sg35
I00
sg47
I2
sbasg46
F10.6731
sbasg41
g404
sg42
(lp554
sg45
I00
sg46
F30.347300000000001
sg35
I00
sg47
I1
sbasg46
F56.953299999999999
sbag1
(g54
g3
NtRp555
(dp556
g57
g389
sg58
F66.985699999999994
sg59
(lp557
g1
(g11
g3
NtRp558
(dp559
g14
I57
sg15
(I5
I7
tp560
sg16
g17
((ltRp561
sg25
I00
sg37
Nsg31
S'SBAR'
p562
sg38
I00
sg39
(lp563
g1
(g54
g3
NtRp564
(dp565
g57
g558
sg58
F47.086210000000001
sg59
(lp566
g1
(g11
g3
NtRp567
(dp568
g14
I56
sg15
(I5
I7
tp569
sg16
g17
((ltRp570
sg25
I00
sg37
Nsg31
S'S'
sg38
I00
sg39
(lp571
g1
(g54
g3
NtRp572
(dp573
g57
g567
sg58
F45.378921000000005
sg59
(lp574
g1
(g11
g3
NtRp575
(dp576
g14
I55
sg15
(I5
I7
tp577
sg16
g17
((ltRp578
sg25
I00
sg37
Nsg31
S'NP'
p579
sg38
I00
sg39
(lp580
g1
(g54
g3
NtRp581
(dp582
g57
g575
sg58
F44.861980000000003
sg59
(lp583
g1
(g11
g3
NtRp584
(dp585
g14
I52
sg15
(I5
I6
tp586
sg16
g17
((ltRp587
sg25
I00
sg37
Nsg31
S'NP'
p588
sg38
I00
sg39
(lp589
g1
(g54
g3
NtRp590
(dp591
g57
g584
sg58
F1.9880800000000001
sg59
(lp592
g260
asg46
F1.9880800000000001
sbasg41
g590
sg42
(lp593
sg45
I00
sg46
F1.9880800000000001
sg35
I00
sg47
I1
sbag1
(g11
g3
NtRp594
(dp595
g14
I54
sg15
(I6
I7
tp596
sg16
g17
((ltRp597
sg25
I00
sg37
Nsg31
S'NP'
p598
sg38
I01
sg39
(lp599
g1
(g54
g3
NtRp600
(dp601
g57
g594
sg58
F22.63439
sg59
(lp602
g1
(g11
g3
NtRp603
(dp604
g14
I53
sg15
(I6
I7
tp605
sg16
g17
((ltRp606
sg25
I00
sg37
Nsg31
S'NP'
p607
sg38
I00
sg39
(lp608
g1
(g54
g3
NtRp609
(dp610
g57
g603
sg58
F-0.27311000000000002
sg59
(lp611
g294
asg46
F-0.27311000000000002
sbasg41
g609
sg42
(lp612
sg45
I00
sg46
F-0.27311000000000002
sg35
I00
sg47
I1
sbasg46
F22.907499999999999
sbasg41
g600
sg42
(lp613
sg45
I00
sg46
F22.634399999999999
sg35
I00
sg47
I1
sbasg46
F20.2395
sbasg41
g581
sg42
(lp614
sg45
I00
sg46
F44.862000000000002
sg35
I00
sg47
I1
sbasg46
F0.51692099999999996
sbasg41
g572
sg42
(lp615
sg45
I00
sg46
F45.378900000000002
sg35
I00
sg47
I1
sbasg46
F1.7073100000000001
sbasg41
g564
sg42
(lp616
sg45
I00
sg46
F47.086199999999998
sg35
I00
sg47
I1
sbasg46
F19.8995
sbag1
(g54
g3
NtRp617
(dp618
g57
g389
sg58
F29.650300000000001
sg59
(lp619
g1
(g11
g3
NtRp620
(dp621
g14
I67
sg15
(I5
I7
tp622
sg16
g17
((ltRp623
sg25
I00
sg37
Nsg31
S'SBAR'
p624
sg38
I00
sg39
(lp625
g1
(g54
g3
NtRp626
(dp627
g57
g620
sg58
F13.557309999999999
sg59
(lp628
g1
(g11
g3
NtRp629
(dp630
g14
I66
sg15
(I5
I7
tp631
sg16
g17
((ltRp632
sg25
I00
sg37
Nsg31
S'S'
sg38
I00
sg39
(lp633
g1
(g54
g3
NtRp634
(dp635
g57
g629
sg58
F11.850021
sg59
(lp636
g1
(g11
g3
NtRp637
(dp638
g14
I62
sg15
(I5
I7
tp639
sg16
g17
((ltRp640
sg25
I00
sg37
Nsg31
S'NP'
p641
sg38
I00
sg39
(lp642
g1
(g54
g3
NtRp643
(dp644
g57
g637
sg58
F11.333038
sg59
(lp645
g1
(g11
g3
NtRp646
(dp647
g14
I58
sg15
(I5
I6
tp648
sg16
g17
((ltRp649
sg25
I00
sg37
Nsg31
S'NNP'
p650
sg38
I01
sg39
(lp651
g1
(g54
g3
NtRp652
(dp653
g57
g646
sg58
F10.6692
sg59
(lp654
g260
asg46
F10.6692
sbasg41
g652
sg42
(lp655
sg45
I00
sg46
F10.6692
sg35
I00
sg47
I1
sbag294
asg46
F0.66383800000000004
sbag1
(g54
g3
NtRp656
(dp657
g57
g637
sg58
F30.982499999999998
sg59
(lp658
g1
(g11
g3
NtRp659
(dp660
g14
I59
sg15
(I5
I6
tp661
sg16
g17
((ltRp662
sg25
I00
sg37
Nsg31
S'JJ'
p663
sg38
I01
sg39
(lp664
g1
(g54
g3
NtRp665
(dp666
g57
g659
sg58
F19.590599999999998
sg59
(lp667
g346
asg46
F19.590599999999998
sbasg41
g665
sg42
(lp668
sg45
I00
sg46
F19.590599999999998
sg35
I00
sg47
I1
sbag294
asg46
F11.3919
sbag1
(g54
g3
NtRp669
(dp670
g57
g637
sg58
F47.2273
sg59
(lp671
g1
(g11
g3
NtRp672
(dp673
g14
I61
sg15
(I5
I6
tp674
sg16
g17
((ltRp675
sg25
I00
sg37
Nsg31
S'NP'
p676
sg38
I01
sg39
(lp677
g1
(g54
g3
NtRp678
(dp679
g57
g672
sg58
F30.42062
sg59
(lp680
g1
(g11
g3
NtRp681
(dp682
g14
I60
sg15
(I5
I6
tp683
sg16
g17
((ltRp684
sg25
I00
sg37
Nsg31
S'NP'
p685
sg38
I00
sg39
(lp686
g1
(g54
g3
NtRp687
(dp688
g57
g681
sg58
F3.1394199999999999
sg59
(lp689
g260
asg46
F3.1394199999999999
sbasg41
g687
sg42
(lp690
sg45
I00
sg46
F3.1394199999999999
sg35
I00
sg47
I1
sbasg46
F27.281199999999998
sbasg41
g678
sg42
(lp691
sg45
I00
sg46
F30.4206
sg35
I00
sg47
I1
sbag294
asg46
F16.806699999999999
sbasg41
g643
sg42
(lp692
sg45
I00
sg46
F11.3331
sg35
I00
sg47
I3
sbasg46
F0.51692099999999996
sbag1
(g54
g3
NtRp693
(dp694
g57
g629
sg58
F29.937939999999998
sg59
(lp695
g1
(g11
g3
NtRp696
(dp697
g14
I64
sg15
(I5
I6
tp698
sg16
g17
((ltRp699
sg25
I00
sg37
Nsg31
S'NP'
p700
sg38
I01
sg39
(lp701
g1
(g54
g3
NtRp702
(dp703
g57
g696
sg58
F25.71698
sg59
(lp704
g1
(g11
g3
NtRp705
(dp706
g14
I63
sg15
(I5
I6
tp707
sg16
g17
((ltRp708
sg25
I00
sg37
Nsg31
S'NP'
p709
sg38
I00
sg39
(lp710
g1
(g54
g3
NtRp711
(dp712
g57
g705
sg58
F2.2335799999999999
sg59
(lp713
g260
asg46
F2.2335799999999999
sbasg41
g711
sg42
(lp714
sg45
I00
sg46
F2.2335799999999999
sg35
I00
sg47
I1
sbasg46
F23.4834
sbasg41
g702
sg42
(lp715
sg45
I00
sg46
F25.716999999999999
sg35
I00
sg47
I1
sbag1
(g11
g3
NtRp716
(dp717
g14
I65
sg15
(I6
I7
tp718
sg16
g17
((ltRp719
sg25
I00
sg37
Nsg31
S'NP'
p720
sg38
I00
sg39
(lp721
g1
(g54
g3
NtRp722
(dp723
g57
g716
sg58
F1.9504300000000001
sg59
(lp724
g294
asg46
F1.9504300000000001
sbasg41
g722
sg42
(lp725
sg45
I00
sg46
F1.9504300000000001
sg35
I00
sg47
I1
sbasg46
F2.2705099999999998
sbasg41
g634
sg42
(lp726
sg45
I00
sg46
F11.85
sg35
I00
sg47
I2
sbasg46
F1.7073100000000001
sbasg41
g626
sg42
(lp727
sg45
I00
sg46
F13.5573
sg35
I00
sg47
I1
sbasg46
F16.093
sbasg41
g617
sg42
(lp728
sg45
I00
sg46
F29.650300000000001
sg35
I00
sg47
I3
sbasg46
F16.863800000000001
sbasg41
g215
sg42
(lp729
sg45
I00
sg46
F27.834299999999999
sg35
I00
sg47
I2
sbag1
(g11
g3
NtRp730
(dp731
g14
I70
sg15
(I4
I7
tp732
sg16
g17
((ltRp733
sg25
I00
sg37
Nsg31
S'ADVP'
p734
sg38
I01
sg39
(lp735
g1
(g54
g3
NtRp736
(dp737
g57
g730
sg58
F38.2363
sg59
(lp738
g210
asg46
F10.401999999999999
sbasg41
g736
sg42
(lp739
sg45
I00
sg46
F38.2363
sg35
I00
sg47
I1
sbag1
(g11
g3
NtRp740
(dp741
g14
I123
sg15
(I4
I7
tp742
sg16
g17
((ltRp743
sg25
I00
sg37
Nsg31
S'NP'
p744
sg38
I00
sg39
(lp745
g1
(g54
g3
NtRp746
(dp747
g57
g740
sg58
F63.004099999999994
sg59
(lp748
g1
(g11
g3
NtRp749
(dp750
g14
I116
sg15
(I4
I6
tp751
sg16
g17
((ltRp752
sg25
I00
sg37
Nsg31
S'ADJP'
p753
sg38
I01
sg39
(lp754
g1
(g54
g3
NtRp755
(dp756
g57
g749
sg58
F32.054119999999998
sg59
(lp757
g1
(g11
g3
NtRp758
(dp759
g14
I115
sg15
(I4
I6
tp760
sg16
g17
((ltRp761
sg25
I00
sg37
Nsg31
S'ADJP'
p762
sg38
I00
sg39
(lp763
g1
(g54
g3
NtRp764
(dp765
g57
g758
sg58
F4.0024199999999999
sg59
(lp766
g1
(g11
g3
NtRp767
(dp768
g14
I112
sg15
(I4
I5
tp769
sg16
g17
((ltRp770
sg25
I00
sg37
Nsg31
S'RB'
p771
sg38
I01
sg39
(lp772
g1
(g54
g3
NtRp773
(dp774
g57
g767
sg58
F2.2550699999999999
sg59
(lp775
g218
asg46
F2.2550699999999999
sbasg41
g773
sg42
(lp776
sg45
I00
sg46
F2.2550699999999999
sg35
I00
sg47
I1
sbag346
asg46
F1.74735
sbag1
(g54
g3
NtRp777
(dp778
g57
g758
sg58
F40.2149
sg59
(lp779
g1
(g11
g3
NtRp780
(dp781
g14
I114
sg15
(I4
I5
tp782
sg16
g17
((ltRp783
sg25
I00
sg37
Nsg31
S'ADVP'
p784
sg38
I01
sg39
(lp785
g1
(g54
g3
NtRp786
(dp787
g57
g780
sg58
F25.484280000000002
sg59
(lp788
g1
(g11
g3
NtRp789
(dp790
g14
I113
sg15
(I4
I5
tp791
sg16
g17
((ltRp792
sg25
I00
sg37
Nsg31
S'ADVP'
p793
sg38
I00
sg39
(lp794
g1
(g54
g3
NtRp795
(dp796
g57
g789
sg58
F2.8106800000000001
sg59
(lp797
g218
asg46
F2.8106800000000001
sbasg41
g795
sg42
(lp798
sg45
I00
sg46
F2.8106800000000001
sg35
I00
sg47
I1
sbasg46
F22.6736
sbasg41
g786
sg42
(lp799
sg45
I00
sg46
F25.484300000000001
sg35
I00
sg47
I1
sbag346
asg46
F14.730600000000001
sbasg41
g764
sg42
(lp800
sg45
I00
sg46
F4.0024199999999999
sg35
I00
sg47
I2
sbasg46
F28.0517
sbasg41
g755
sg42
(lp801
sg45
I00
sg46
F32.054099999999998
sg35
I00
sg47
I1
sbag294
asg46
F30.949999999999999
sbag1
(g54
g3
NtRp802
(dp803
g57
g740
sg58
F69.613240000000005
sg59
(lp804
g1
(g11
g3
NtRp805
(dp806
g14
I117
sg15
(I4
I5
tp807
sg16
g17
((ltRp808
sg25
I00
sg37
Nsg31
S'RB'
p809
sg38
I01
sg39
(lp810
g1
(g54
g3
NtRp811
(dp812
g57
g805
sg58
F3.0473400000000002
sg59
(lp813
g218
asg46
F3.0473400000000002
sbasg41
g811
sg42
(lp814
sg45
I00
sg46
F3.0473400000000002
sg35
I00
sg47
I1
sbag1
(g11
g3
NtRp815
(dp816
g14
I118
sg15
(I5
I6
tp817
sg16
g17
((ltRp818
sg25
I00
sg37
Nsg31
S'NNP'
p819
sg38
I01
sg39
(lp820
g1
(g54
g3
NtRp821
(dp822
g57
g815
sg58
F10.6692
sg59
(lp823
g260
asg46
F10.6692
sbasg41
g821
sg42
(lp824
sg45
I00
sg46
F10.6692
sg35
I00
sg47
I1
sbag294
asg46
F55.896700000000003
sbag1
(g54
g3
NtRp825
(dp826
g57
g740
sg58
F77.470740000000006
sg59
(lp827
g805
ag1
(g11
g3
NtRp828
(dp829
g14
I119
sg15
(I5
I6
tp830
sg16
g17
((ltRp831
sg25
I00
sg37
Nsg31
S'JJ'
p832
sg38
I01
sg39
(lp833
g1
(g54
g3
NtRp834
(dp835
g57
g828
sg58
F7.8536000000000001
sg59
(lp836
g346
asg46
F7.8536000000000001
sbasg41
g834
sg42
(lp837
sg45
I00
sg46
F7.8536000000000001
sg35
I00
sg47
I1
sbag294
asg46
F66.569800000000001
sbag1
(g54
g3
NtRp838
(dp839
g57
g740
sg58
F75.3506
sg59
(lp840
g1
(g11
g3
NtRp841
(dp842
g14
I121
sg15
(I4
I5
tp843
sg16
g17
((ltRp844
sg25
I00
sg37
Nsg31
S'NP'
p845
sg38
I01
sg39
(lp846
g1
(g54
g3
NtRp847
(dp848
g57
g841
sg58
F43.510129999999997
sg59
(lp849
g1
(g11
g3
NtRp850
(dp851
g14
I120
sg15
(I4
I5
tp852
sg16
g17
((ltRp853
sg25
I00
sg37
Nsg31
S'NP'
p854
sg38
I00
sg39
(lp855
g1
(g54
g3
NtRp856
(dp857
g57
g850
sg58
F0.22613
sg59
(lp858
g218
asg46
F0.22613
sbasg41
g856
sg42
(lp859
sg45
I00
sg46
F0.22613
sg35
I00
sg47
I1
sbasg46
F43.283999999999999
sbasg41
g847
sg42
(lp860
sg45
I00
sg46
F43.510100000000001
sg35
I00
sg47
I1
sbag1
(g11
g3
NtRp861
(dp862
g14
I122
sg15
(I5
I6
tp863
sg16
g17
((ltRp864
sg25
I00
sg37
Nsg31
S'NNP'
p865
sg38
I01
sg39
(lp866
g1
(g54
g3
NtRp867
(dp868
g57
g861
sg58
F10.6692
sg59
(lp869
g260
asg46
F10.6692
sbasg41
g867
sg42
(lp870
sg45
I00
sg46
F10.6692
sg35
I00
sg47
I1
sbag294
asg46
F21.171299999999999
sbasg41
g746
sg42
(lp871
sg45
I00
sg46
F63.004199999999997
sg35
I00
sg47
I4
sbag1
(g11
g3
NtRp872
(dp873
g14
I138
sg15
(I4
I7
tp874
sg16
g17
((ltRp875
sg25
I00
sg37
Nsg31
S'NP'
p876
sg38
I00
sg39
(lp877
g1
(g54
g3
NtRp878
(dp879
g57
g872
sg58
F24.560700000000001
sg59
(lp880
g218
ag1
(g11
g3
NtRp881
(dp882
g14
I133
sg15
(I5
I7
tp883
sg16
g17
((ltRp884
sg25
I00
sg37
Nsg31
S'NP'
p885
sg38
I01
sg39
(lp886
g1
(g54
g3
NtRp887
(dp888
g57
g881
sg58
F53.653199999999998
sg59
(lp889
g1
(g11
g3
NtRp890
(dp891
g14
I127
sg15
(I5
I7
tp892
sg16
g17
((ltRp893
sg25
I00
sg37
Nsg31
S'NP'
p894
sg38
I00
sg39
(lp895
g1
(g54
g3
NtRp896
(dp897
g57
g890
sg58
F28.095480000000002
sg59
(lp898
g1
(g11
g3
NtRp899
(dp900
g14
I124
sg15
(I5
I6
tp901
sg16
g17
((ltRp902
sg25
I00
sg37
Nsg31
S'NP'
p903
sg38
I00
sg39
(lp904
g1
(g54
g3
NtRp905
(dp906
g57
g899
sg58
F1.99207
sg59
(lp907
g260
asg46
F1.99207
sbasg41
g905
sg42
(lp908
sg45
I00
sg46
F1.99207
sg35
I00
sg47
I1
sbag1
(g11
g3
NtRp909
(dp910
g14
I126
sg15
(I6
I7
tp911
sg16
g17
((ltRp912
sg25
I00
sg37
Nsg31
S'NP'
p913
sg38
I01
sg39
(lp914
g1
(g54
g3
NtRp915
(dp916
g57
g909
sg58
F21.79308
sg59
(lp917
g1
(g11
g3
NtRp918
(dp919
g14
I125
sg15
(I6
I7
tp920
sg16
g17
((ltRp921
sg25
I00
sg37
Nsg31
S'NP'
p922
sg38
I00
sg39
(lp923
g1
(g54
g3
NtRp924
(dp925
g57
g918
sg58
F-0.26912000000000003
sg59
(lp926
g294
asg46
F-0.26912000000000003
sbasg41
g924
sg42
(lp927
sg45
I00
sg46
F-0.26912000000000003
sg35
I00
sg47
I1
sbasg46
F22.062200000000001
sbasg41
g915
sg42
(lp928
sg45
I00
sg46
F21.793099999999999
sg35
I00
sg47
I1
sbasg46
F4.3103100000000003
sbasg41
g896
sg42
(lp929
sg45
I00
sg46
F28.095500000000001
sg35
I00
sg47
I1
sbasg46
F25.557700000000001
sbag1
(g54
g3
NtRp930
(dp931
g57
g881
sg58
F14.301639999999999
sg59
(lp932
g1
(g11
g3
NtRp933
(dp934
g14
I132
sg15
(I5
I7
tp935
sg16
g17
((ltRp936
sg25
I00
sg37
Nsg31
S'NP'
p937
sg38
I00
sg39
(lp938
g1
(g54
g3
NtRp939
(dp940
g57
g933
sg58
F2.4088440000000002
sg59
(lp941
g1
(g11
g3
NtRp942
(dp943
g14
I128
sg15
(I5
I6
tp944
sg16
g17
((ltRp945
sg25
I00
sg37
Nsg31
S'NNP'
p946
sg38
I01
sg39
(lp947
g1
(g54
g3
NtRp948
(dp949
g57
g942
sg58
F0.42347400000000002
sg59
(lp950
g260
asg46
F0.42347400000000002
sbasg41
g948
sg42
(lp951
sg45
I00
sg46
F0.42347400000000002
sg35
I00
sg47
I1
sbag294
asg46
F1.9853700000000001
sbag1
(g54
g3
NtRp952
(dp953
g57
g933
sg58
F26.558419999999998
sg59
(lp954
g1
(g11
g3
NtRp955
(dp956
g14
I129
sg15
(I5
I6
tp957
sg16
g17
((ltRp958
sg25
I00
sg37
Nsg31
S'JJ'
p959
sg38
I01
sg39
(lp960
g1
(g54
g3
NtRp961
(dp962
g57
g955
sg58
F19.590599999999998
sg59
(lp963
g346
asg46
F19.590599999999998
sbasg41
g961
sg42
(lp964
sg45
I00
sg46
F19.590599999999998
sg35
I00
sg47
I1
sbag294
asg46
F6.9678199999999997
sbag1
(g54
g3
NtRp965
(dp966
g57
g933
sg58
F35.245000000000005
sg59
(lp967
g1
(g11
g3
NtRp968
(dp969
g14
I131
sg15
(I5
I6
tp970
sg16
g17
((ltRp971
sg25
I00
sg37
Nsg31
S'NP'
p972
sg38
I01
sg39
(lp973
g1
(g54
g3
NtRp974
(dp975
g57
g968
sg58
F28.246680000000001
sg59
(lp976
g1
(g11
g3
NtRp977
(dp978
g14
I130
sg15
(I5
I6
tp979
sg16
g17
((ltRp980
sg25
I00
sg37
Nsg31
S'NP'
p981
sg38
I00
sg39
(lp982
g1
(g54
g3
NtRp983
(dp984
g57
g977
sg58
F3.3060800000000001
sg59
(lp985
g260
asg46
F3.3060800000000001
sbasg41
g983
sg42
(lp986
sg45
I00
sg46
F3.3060800000000001
sg35
I00
sg47
I1
sbasg46
F24.9406
sbasg41
g974
sg42
(lp987
sg45
I00
sg46
F28.246700000000001
sg35
I00
sg47
I1
sbag294
asg46
F6.9983000000000004
sbasg41
g939
sg42
(lp988
sg45
I00
sg46
F2.4088400000000001
sg35
I00
sg47
I3
sbasg46
F11.892799999999999
sbasg41
g930
sg42
(lp989
sg45
I00
sg46
F14.3017
sg35
I00
sg47
I2
sbasg46
F10.259
sbag1
(g54
g3
NtRp990
(dp991
g57
g872
sg58
F24.873190000000001
sg59
(lp992
g1
(g11
g3
NtRp993
(dp994
g14
I134
sg15
(I4
I5
tp995
sg16
g17
((ltRp996
sg25
I00
sg37
Nsg31
S'NP'
p997
sg38
I00
sg39
(lp998
g1
(g54
g3
NtRp999
(dp1000
g57
g993
sg58
F1.04366
sg59
(lp1001
g218
asg46
F1.04366
sbasg41
g999
sg42
(lp1002
sg45
I00
sg46
F1.04366
sg35
I00
sg47
I1
sbag1
(g11
g3
NtRp1003
(dp1004
g14
I137
sg15
(I5
I7
tp1005
sg16
g17
((ltRp1006
sg25
I00
sg37
Nsg31
S'NP'
p1007
sg38
I01
sg39
(lp1008
g1
(g54
g3
NtRp1009
(dp1010
g57
g1003
sg58
F58.3596
sg59
(lp1011
g1
(g11
g3
NtRp1012
(dp1013
g14
I135
sg15
(I5
I7
tp1014
sg16
g17
((ltRp1015
sg25
I00
sg37
Nsg31
S'NP'
p1016
sg38
I00
sg39
(lp1017
g1
(g54
g3
NtRp1018
(dp1019
g57
g1012
sg58
F34.699770000000001
sg59
(lp1020
g899
ag909
asg46
F10.9146
sbasg41
g1018
sg42
(lp1021
sg45
I00
sg46
F34.6997
sg35
I00
sg47
I1
sbasg46
F23.6599
sbag1
(g54
g3
NtRp1022
(dp1023
g57
g1003
sg58
F9.16249
sg59
(lp1024
g1
(g11
g3
NtRp1025
(dp1026
g14
I136
sg15
(I5
I7
tp1027
sg16
g17
((ltRp1028
sg25
I00
sg37
Nsg31
S'NP'
p1029
sg38
I00
sg39
(lp1030
g1
(g54
g3
NtRp1031
(dp1032
g57
g1025
sg58
F10.654174000000001
sg59
(lp1033
g942
ag294
asg46
F10.230700000000001
sbag1
(g54
g3
NtRp1034
(dp1035
g57
g1025
sg58
F36.4559
sg59
(lp1036
g955
ag294
asg46
F16.865300000000001
sbag1
(g54
g3
NtRp1037
(dp1038
g57
g1025
sg58
F45.1783
sg59
(lp1039
g968
ag294
asg46
F16.9316
sbasg41
g1031
sg42
(lp1040
sg45
I00
sg46
F10.6541
sg35
I00
sg47
I3
sbasg46
F-1.4916100000000001
sbasg41
g1022
sg42
(lp1041
sg45
I00
sg46
F9.1625300000000003
sg35
I00
sg47
I2
sbasg46
F14.667
sbasg41
g878
sg42
(lp1042
sg45
I00
sg46
F24.560700000000001
sg35
I00
sg47
I2
sbag1
(g11
g3
NtRp1043
(dp1044
g14
I139
sg15
(I4
I7
tp1045
sg16
g17
((ltRp1046
sg25
I00
sg37
Nsg31
S'NP'
p1047
sg38
I01
sg39
(lp1048
g1
(g54
g3
NtRp1049
(dp1050
g57
g1043
sg58
F71.613720000000001
sg59
(lp1051
g740
asg46
F8.6095199999999998
sbag1
(g54
g3
NtRp1052
(dp1053
g57
g1043
sg58
F57.863600000000005
sg59
(lp1054
g872
asg46
F33.302900000000001
sbasg41
g1052
sg42
(lp1055
sg45
I00
sg46
F57.863500000000002
sg35
I00
sg47
I2
sbasg296
(lp1056
g294
ag1
(g11
g3
NtRp1057
(dp1058
g14
I17
sg15
(I6
I7
tp1059
sg16
g17
((ltRp1060
sg25
I00
sg37
Nsg31
S'NP'
p1061
sg38
I00
sg39
(lp1062
g1
(g54
g3
NtRp1063
(dp1064
g57
g1057
sg58
F-0.30892599999999998
sg59
(lp1065
g294
asg46
F-0.30892599999999998
sbasg41
g1063
sg42
(lp1066
sg45
I00
sg46
F-0.30892599999999998
sg35
I00
sg47
I1
sbag1
(g11
g3
NtRp1067
(dp1068
g14
I18
sg15
(I6
I7
tp1069
sg16
g17
((ltRp1070
sg25
I00
sg37
Nsg31
S'NP'
p1071
sg38
I01
sg39
(lp1072
g1
(g54
g3
NtRp1073
(dp1074
g57
g1067
sg58
F14.668074000000001
sg59
(lp1075
g1057
asg46
F14.977
sbasg41
g1073
sg42
(lp1076
sg45
I00
sg46
F14.668100000000001
sg35
I00
sg47
I1
sbag285
ag276
ag424
ag446
ag437
ag476
ag468
ag460
ag510
ag501
ag540
ag532
ag524
ag603
ag594
ag716
ag1
(g11
g3
NtRp1077
(dp1078
g14
I76
sg15
(I6
I7
tp1079
sg16
g17
((ltRp1080
sg25
I00
sg37
Nsg31
S'NNP'
p1081
sg38
I01
sg39
(lp1082
g1
(g54
g3
NtRp1083
(dp1084
g57
g1077
sg58
F9.9784299999999995
sg59
(lp1085
g294
asg46
F9.9784299999999995
sbasg41
g1083
sg42
(lp1086
sg45
I00
sg46
F9.9784299999999995
sg35
I00
sg47
I1
sbag1
(g11
g3
NtRp1087
(dp1088
g14
I77
sg15
(I6
I7
tp1089
sg16
g17
((ltRp1090
sg25
I00
sg37
Nsg31
S'NP'
p1091
sg38
I00
sg39
(lp1092
g1
(g54
g3
NtRp1093
(dp1094
g57
g1087
sg58
F2.88103
sg59
(lp1095
g294
asg46
F2.88103
sbasg41
g1093
sg42
(lp1096
sg45
I00
sg46
F2.88103
sg35
I00
sg47
I1
sbag1
(g11
g3
NtRp1097
(dp1098
g14
I78
sg15
(I6
I7
tp1099
sg16
g17
((ltRp1100
sg25
I00
sg37
Nsg31
S'NP'
p1101
sg38
I01
sg39
(lp1102
g1
(g54
g3
NtRp1103
(dp1104
g57
g1097
sg58
F28.435929999999999
sg59
(lp1105
g1087
asg46
F25.5549
sbasg41
g1103
sg42
(lp1106
sg45
I00
sg46
F28.4359
sg35
I00
sg47
I1
sbag1
(g11
g3
NtRp1107
(dp1108
g14
I79
sg15
(I6
I7
tp1109
sg16
g17
((ltRp1110
sg25
I00
sg37
Nsg31
S'S'
sg38
I00
sg39
(lp1111
g1
(g54
g3
NtRp1112
(dp1113
g57
g1107
sg58
F2.3085110000000002
sg59
(lp1114
g476
asg46
F0.51692099999999996
sbasg41
g1112
sg42
(lp1115
sg45
I00
sg46
F2.3085100000000001
sg35
I00
sg47
I1
sbag1
(g11
g3
NtRp1116
(dp1117
g14
I80
sg15
(I6
I7
tp1118
sg16
g17
((ltRp1119
sg25
I00
sg37
Nsg31
S'S'
sg38
I01
sg39
(lp1120
g1
(g54
g3
NtRp1121
(dp1122
g57
g1116
sg58
F27.632710000000003
sg59
(lp1123
g1107
asg46
F25.324200000000001
sbasg41
g1121
sg42
(lp1124
sg45
I00
sg46
F27.6327
sg35
I00
sg47
I1
sbag1
(g11
g3
NtRp1125
(dp1126
g14
I93
sg15
(I6
I7
tp1127
sg16
g17
((ltRp1128
sg25
I00
sg37
Nsg31
S'NP'
p1129
sg38
I00
sg39
(lp1130
g1
(g54
g3
NtRp1131
(dp1132
g57
g1125
sg58
F1.85968
sg59
(lp1133
g294
asg46
F1.85968
sbasg41
g1131
sg42
(lp1134
sg45
I00
sg46
F1.85968
sg35
I00
sg47
I1
sbag918
ag909
ag1
(g11
g3
NtRp1135
(dp1136
g14
I149
sg15
(I6
I7
tp1137
sg16
g17
((ltRp1138
sg25
I00
sg37
Nsg31
S'S'
sg38
I00
sg39
(lp1139
g1
(g54
g3
NtRp1140
(dp1141
g57
g1135
sg58
F1.882029
sg59
(lp1142
g540
asg46
F0.18118899999999999
sbasg41
g1140
sg42
(lp1143
sg45
I00
sg46
F1.8820300000000001
sg35
I00
sg47
I1
sbag1
(g11
g3
NtRp1144
(dp1145
g14
I150
sg15
(I6
I7
tp1146
sg16
g17
((ltRp1147
sg25
I00
sg37
Nsg31
S'S'
sg38
I01
sg39
(lp1148
g1
(g54
g3
NtRp1149
(dp1150
g57
g1144
sg58
F51.663029999999999
sg59
(lp1151
g1135
asg46
F49.780999999999999
sbasg41
g1149
sg42
(lp1152
sg45
I00
sg46
F51.6631
sg35
I00
sg47
I1
sbag1
(g11
g3
NtRp1153
(dp1154
g14
I151
sg15
(I6
I7
tp1155
sg16
g17
((ltRp1156
sg25
I00
sg37
Nsg31
S'NP'
p1157
sg38
I00
sg39
(lp1158
g1
(g54
g3
NtRp1159
(dp1160
g57
g1153
sg58
F-0.143871
sg59
(lp1161
g294
asg46
F-0.143871
sbasg41
g1159
sg42
(lp1162
sg45
I00
sg46
F-0.143871
sg35
I00
sg47
I1
sbag1
(g11
g3
NtRp1163
(dp1164
g14
I152
sg15
(I6
I7
tp1165
sg16
g17
((ltRp1166
sg25
I00
sg37
Nsg31
S'NP'
p1167
sg38
I01
sg39
(lp1168
g1
(g54
g3
NtRp1169
(dp1170
g57
g1163
sg58
F8.2922089999999997
sg59
(lp1171
g1153
asg46
F8.4360800000000005
sbasg41
g1169
sg42
(lp1172
sg45
I00
sg46
F8.2922100000000007
sg35
I00
sg47
I1
sbag1
(g11
g3
NtRp1173
(dp1174
g14
I153
sg15
(I6
I7
tp1175
sg16
g17
((ltRp1176
sg25
I00
sg37
Nsg31
S'NP'
p1177
sg38
I00
sg39
(lp1178
g1
(g54
g3
NtRp1179
(dp1180
g57
g1173
sg58
F0.23417399999999999
sg59
(lp1181
g294
asg46
F0.23417399999999999
sbasg41
g1179
sg42
(lp1182
sg45
I00
sg46
F0.23417399999999999
sg35
I00
sg47
I1
sbag1
(g11
g3
NtRp1183
(dp1184
g14
I154
sg15
(I6
I7
tp1185
sg16
g17
((ltRp1186
sg25
I00
sg37
Nsg31
S'NP'
p1187
sg38
I01
sg39
(lp1188
g1
(g54
g3
NtRp1189
(dp1190
g57
g1183
sg58
F10.233093999999999
sg59
(lp1191
g1173
asg46
F9.99892
sbasg41
g1189
sg42
(lp1192
sg45
I00
sg46
F10.2331
sg35
I00
sg47
I1
sbag1
(g11
g3
NtRp1193
(dp1194
g14
I155
sg15
(I6
I7
tp1195
sg16
g17
((ltRp1196
sg25
I00
sg37
Nsg31
S'S'
sg38
I00
sg39
(lp1197
g1
(g54
g3
NtRp1198
(dp1199
g57
g1193
sg58
F1.882029
sg59
(lp1200
g540
asg46
F0.18118899999999999
sbasg41
g1198
sg42
(lp1201
sg45
I00
sg46
F1.8820300000000001
sg35
I00
sg47
I1
sbag1
(g11
g3
NtRp1202
(dp1203
g14
I156
sg15
(I6
I7
tp1204
sg16
g17
((ltRp1205
sg25
I00
sg37
Nsg31
S'S'
sg38
I01
sg39
(lp1206
g1
(g54
g3
NtRp1207
(dp1208
g57
g1202
sg58
F34.55603
sg59
(lp1209
g1193
asg46
F32.673999999999999
sbasg41
g1207
sg42
(lp1210
sg45
I00
sg46
F34.555999999999997
sg35
I00
sg47
I1
sbag1
(g11
g3
NtRp1211
(dp1212
g14
I176
sg15
(I6
I7
tp1213
sg16
g17
((ltRp1214
sg25
I00
sg37
Nsg31
S'NP'
p1215
sg38
I00
sg39
(lp1216
g1
(g54
g3
NtRp1217
(dp1218
g57
g1211
sg58
F-0.34546399999999999
sg59
(lp1219
g294
asg46
F-0.34546399999999999
sbasg41
g1217
sg42
(lp1220
sg45
I00
sg46
F-0.34546399999999999
sg35
I00
sg47
I1
sbag1
(g11
g3
NtRp1221
(dp1222
g14
I177
sg15
(I6
I7
tp1223
sg16
g17
((ltRp1224
sg25
I00
sg37
Nsg31
S'NP'
p1225
sg38
I01
sg39
(lp1226
g1
(g54
g3
NtRp1227
(dp1228
g57
g1221
sg58
F6.1735760000000006
sg59
(lp1229
g1211
asg46
F6.5190400000000004
sbasg41
g1227
sg42
(lp1230
sg45
I00
sg46
F6.1735800000000003
sg35
I00
sg47
I1
sbasg760
(lp1231
g758
ag749
ag1
(g11
g3
NtRp1232
(dp1233
g14
I147
sg15
(I4
I6
tp1234
sg16
g17
((ltRp1235
sg25
I00
sg37
Nsg31
S'ADJP'
p1236
sg38
I00
sg39
(lp1237
g1
(g54
g3
NtRp1238
(dp1239
g57
g1232
sg58
F5.5845799999999999
sg59
(lp1240
g1
(g11
g3
NtRp1241
(dp1242
g14
I144
sg15
(I4
I5
tp1243
sg16
g17
((ltRp1244
sg25
I00
sg37
Nsg31
S'RB'
p1245
sg38
I01
sg39
(lp1246
g1
(g54
g3
NtRp1247
(dp1248
g57
g1241
sg58
F2.4536199999999999
sg59
(lp1249
g218
asg46
F2.4536199999999999
sbasg41
g1247
sg42
(lp1250
sg45
I00
sg46
F2.4536199999999999
sg35
I00
sg47
I1
sbag346
asg46
F3.13096
sbag1
(g54
g3
NtRp1251
(dp1252
g57
g1232
sg58
F37.3977
sg59
(lp1253
g1
(g11
g3
NtRp1254
(dp1255
g14
I146
sg15
(I4
I5
tp1256
sg16
g17
((ltRp1257
sg25
I00
sg37
Nsg31
S'ADVP'
p1258
sg38
I01
sg39
(lp1259
g1
(g54
g3
NtRp1260
(dp1261
g57
g1254
sg58
F25.484280000000002
sg59
(lp1262
g1
(g11
g3
NtRp1263
(dp1264
g14
I145
sg15
(I4
I5
tp1265
sg16
g17
((ltRp1266
sg25
I00
sg37
Nsg31
S'ADVP'
p1267
sg38
I00
sg39
(lp1268
g1
(g54
g3
NtRp1269
(dp1270
g57
g1263
sg58
F2.8106800000000001
sg59
(lp1271
g218
asg46
F2.8106800000000001
sbasg41
g1269
sg42
(lp1272
sg45
I00
sg46
F2.8106800000000001
sg35
I00
sg47
I1
sbasg46
F22.6736
sbasg41
g1260
sg42
(lp1273
sg45
I00
sg46
F25.484300000000001
sg35
I00
sg47
I1
sbag346
asg46
F11.913399999999999
sbasg41
g1238
sg42
(lp1274
sg45
I00
sg46
F5.5845799999999999
sg35
I00
sg47
I2
sbag1
(g11
g3
NtRp1275
(dp1276
g14
I148
sg15
(I4
I6
tp1277
sg16
g17
((ltRp1278
sg25
I00
sg37
Nsg31
S'ADJP'
p1279
sg38
I01
sg39
(lp1280
g1
(g54
g3
NtRp1281
(dp1282
g57
g1275
sg58
F47.845880000000001
sg59
(lp1283
g1232
asg46
F42.261299999999999
sbasg41
g1281
sg42
(lp1284
sg45
I00
sg46
F47.8459
sg35
I00
sg47
I1
sbasg262
(lp1285
g260
ag1
(g11
g3
NtRp1286
(dp1287
g14
I15
sg15
(I5
I6
tp1288
sg16
g17
((ltRp1289
sg25
I00
sg37
Nsg31
S'NP'
p1290
sg38
I00
sg39
(lp1291
g1
(g54
g3
NtRp1292
(dp1293
g57
g1286
sg58
F1.9522600000000001
sg59
(lp1294
g260
asg46
F1.9522600000000001
sbasg41
g1292
sg42
(lp1295
sg45
I00
sg46
F1.9522600000000001
sg35
I00
sg47
I1
sbag1
(g11
g3
NtRp1296
(dp1297
g14
I20
sg15
(I5
I6
tp1298
sg16
g17
((ltRp1299
sg25
I00
sg37
Nsg31
S'NNP'
p1300
sg38
I01
sg39
(lp1301
g1
(g54
g3
NtRp1302
(dp1303
g57
g1296
sg58
F10.6692
sg59
(lp1304
g260
asg46
F10.6692
sbasg41
g1302
sg42
(lp1305
sg45
I00
sg46
F10.6692
sg35
I00
sg47
I1
sbag346
ag1
(g11
g3
NtRp1306
(dp1307
g14
I22
sg15
(I5
I6
tp1308
sg16
g17
((ltRp1309
sg25
I00
sg37
Nsg31
S'JJ'
p1310
sg38
I01
sg39
(lp1311
g1
(g54
g3
NtRp1312
(dp1313
g57
g1306
sg58
F7.8536000000000001
sg59
(lp1314
g346
asg46
F7.8536000000000001
sbasg41
g1312
sg42
(lp1315
sg45
I00
sg46
F7.8536000000000001
sg35
I00
sg47
I1
sbag1
(g11
g3
NtRp1316
(dp1317
g14
I23
sg15
(I5
I6
tp1318
sg16
g17
((ltRp1319
sg25
I00
sg37
Nsg31
S'NP'
p1320
sg38
I00
sg39
(lp1321
g1
(g54
g3
NtRp1322
(dp1323
g57
g1316
sg58
F3.12297
sg59
(lp1324
g260
asg46
F3.12297
sbasg41
g1322
sg42
(lp1325
sg45
I00
sg46
F3.12297
sg35
I00
sg47
I1
sbag1
(g11
g3
NtRp1326
(dp1327
g14
I24
sg15
(I5
I6
tp1328
sg16
g17
((ltRp1329
sg25
I00
sg37
Nsg31
S'NP'
p1330
sg38
I01
sg39
(lp1331
g1
(g54
g3
NtRp1332
(dp1333
g57
g1326
sg58
F33.931670000000004
sg59
(lp1334
g1316
asg46
F30.808700000000002
sbasg41
g1332
sg42
(lp1335
sg45
I00
sg46
F33.931600000000003
sg35
I00
sg47
I1
sbag251
ag324
ag337
ag373
ag364
ag584
ag646
ag659
ag681
ag672
ag705
ag696
ag1
(g11
g3
NtRp1336
(dp1337
g14
I91
sg15
(I5
I6
tp1338
sg16
g17
((ltRp1339
sg25
I00
sg37
Nsg31
S'NP'
p1340
sg38
I00
sg39
(lp1341
g1
(g54
g3
NtRp1342
(dp1343
g57
g1336
sg58
F2.1428199999999999
sg59
(lp1344
g260
asg46
F2.1428199999999999
sbasg41
g1342
sg42
(lp1345
sg45
I00
sg46
F2.1428199999999999
sg35
I00
sg47
I1
sbag1
(g11
g3
NtRp1346
(dp1347
g14
I92
sg15
(I5
I6
tp1348
sg16
g17
((ltRp1349
sg25
I00
sg37
Nsg31
S'NP'
p1350
sg38
I01
sg39
(lp1351
g1
(g54
g3
NtRp1352
(dp1353
g57
g1346
sg58
F25.62622
sg59
(lp1354
g1336
asg46
F23.4834
sbasg41
g1352
sg42
(lp1355
sg45
I00
sg46
F25.626200000000001
sg35
I00
sg47
I1
sbag815
ag828
ag861
ag899
ag942
ag955
ag977
ag968
ag1
(g11
g3
NtRp1356
(dp1357
g14
I174
sg15
(I5
I6
tp1358
sg16
g17
((ltRp1359
sg25
I00
sg37
Nsg31
S'NP'
p1360
sg38
I00
sg39
(lp1361
g1
(g54
g3
NtRp1362
(dp1363
g57
g1356
sg58
F1.27796
sg59
(lp1364
g260
asg46
F1.27796
sbasg41
g1362
sg42
(lp1365
sg45
I00
sg46
F1.27796
sg35
I00
sg47
I1
sbag1
(g11
g3
NtRp1366
(dp1367
g14
I175
sg15
(I5
I6
tp1368
sg16
g17
((ltRp1369
sg25
I00
sg37
Nsg31
S'NP'
p1370
sg38
I01
sg39
(lp1371
g1
(g54
g3
NtRp1372
(dp1373
g57
g1366
sg58
F54.641060000000003
sg59
(lp1374
g1356
asg46
F53.363100000000003
sbasg41
g1372
sg42
(lp1375
sg45
I00
sg46
F54.641100000000002
sg35
I00
sg47
I1
sbas(I7
I8
tp1376
(lp1377
g1
(g11
g3
NtRp1378
(dp1379
g14
I179
sg15
g1376
sg16
g17
((lp1380
g1
(g19
g3
NtRp1381
(dp1382
g22
S'.'
sg24
I01
sg25
I01
sg26
(lp1383
S'.'
asg29
S'(. .)'
p1384
sg31
S'.'
sg32
Nsg33
(lp1385
S'.'
asg15
g1376
sg35
I00
sbatRp1386
sg25
I01
sg37
Nsg31
S'.'
sg38
I00
sg39
(lp1387
sg41
Nsg22
S'.'
sg42
(lp1388
(F-0
g1381
tp1389
asg45
I01
sg46
F-0
sg35
I00
sg47
I0
sbag1
(g11
g3
NtRp1390
(dp1391
g14
I180
sg15
(I7
I8
tp1392
sg16
g17
((ltRp1393
sg25
I00
sg37
Nsg31
S'.'
sg38
I01
sg39
(lp1394
g1
(g54
g3
NtRp1395
(dp1396
g57
g1390
sg58
F-9.2258200000000006
sg59
(lp1397
g1378
asg46
F-9.2258200000000006
sbasg41
g1395
sg42
(lp1398
sg45
I00
sg46
F-9.2258200000000006
sg35
I00
sg47
I1
sbas(I5
I7
tp1399
(lp1400
g1
(g11
g3
NtRp1401
(dp1402
g14
I19
sg15
g1399
sg16
g17
((ltRp1403
sg25
I00
sg37
Nsg31
S'NP'
p1404
sg38
I00
sg39
(lp1405
g1
(g54
g3
NtRp1406
(dp1407
g57
g1401
sg58
F30.855260000000001
sg59
(lp1408
g1286
ag1067
asg46
F14.2349
sbasg41
g1406
sg42
(lp1409
sg45
I00
sg46
F30.8553
sg35
I00
sg47
I1
sbag1
(g11
g3
NtRp1410
(dp1411
g14
I25
sg15
(I5
I7
tp1412
sg16
g17
((ltRp1413
sg25
I00
sg37
Nsg31
S'NP'
p1414
sg38
I00
sg39
(lp1415
g1
(g54
g3
NtRp1416
(dp1417
g57
g1410
sg58
F19.586489999999998
sg59
(lp1418
g1296
ag294
asg46
F8.9172899999999995
sbag1
(g54
g3
NtRp1419
(dp1420
g57
g1410
sg58
F9.3900600000000001
sg59
(lp1421
g1306
ag294
asg46
F1.5364599999999999
sbag1
(g54
g3
NtRp1422
(dp1423
g57
g1410
sg58
F62.573599999999999
sg59
(lp1424
g1326
ag294
asg46
F28.641999999999999
sbasg41
g1419
sg42
(lp1425
sg45
I00
sg46
F9.3900600000000001
sg35
I00
sg47
I3
sbag1
(g11
g3
NtRp1426
(dp1427
g14
I26
sg15
(I5
I7
tp1428
sg16
g17
((ltRp1429
sg25
I00
sg37
Nsg31
S'NP'
p1430
sg38
I01
sg39
(lp1431
g1
(g54
g3
NtRp1432
(dp1433
g57
g1426
sg58
F90.080600000000004
sg59
(lp1434
g1401
asg46
F59.225299999999997
sbag1
(g54
g3
NtRp1435
(dp1436
g57
g1426
sg58
F23.79196
sg59
(lp1437
g1410
asg46
F14.401899999999999
sbasg41
g1435
sg42
(lp1438
sg45
I00
sg46
F23.791899999999998
sg35
I00
sg47
I2
sbag242
ag315
ag233
ag415
ag492
ag407
ag398
ag575
ag567
ag558
ag637
ag629
ag620
ag389
ag1
(g11
g3
NtRp1439
(dp1440
g14
I73
sg15
(I5
I7
tp1441
sg16
g17
((ltRp1442
sg25
I00
sg37
Nsg31
S'NP'
p1443
sg38
I00
sg39
(lp1444
g1
(g54
g3
NtRp1445
(dp1446
g57
g1439
sg58
F30.855260000000001
sg59
(lp1447
g1286
ag1067
asg46
F14.2349
sbasg41
g1445
sg42
(lp1448
sg45
I00
sg46
F30.8553
sg35
I00
sg47
I1
sbag1
(g11
g3
NtRp1449
(dp1450
g14
I74
sg15
(I5
I7
tp1451
sg16
g17
((ltRp1452
sg25
I00
sg37
Nsg31
S'NP'
p1453
sg38
I00
sg39
(lp1454
g1
(g54
g3
NtRp1455
(dp1456
g57
g1449
sg58
F19.586489999999998
sg59
(lp1457
g1296
ag294
asg46
F8.9172899999999995
sbag1
(g54
g3
NtRp1458
(dp1459
g57
g1449
sg58
F9.3900600000000001
sg59
(lp1460
g1306
ag294
asg46
F1.5364599999999999
sbag1
(g54
g3
NtRp1461
(dp1462
g57
g1449
sg58
F62.573599999999999
sg59
(lp1463
g1326
ag294
asg46
F28.641999999999999
sbasg41
g1458
sg42
(lp1464
sg45
I00
sg46
F9.3900600000000001
sg35
I00
sg47
I3
sbag1
(g11
g3
NtRp1465
(dp1466
g14
I75
sg15
(I5
I7
tp1467
sg16
g17
((ltRp1468
sg25
I00
sg37
Nsg31
S'NP'
p1469
sg38
I01
sg39
(lp1470
g1
(g54
g3
NtRp1471
(dp1472
g57
g1465
sg58
F90.080600000000004
sg59
(lp1473
g1439
asg46
F59.225299999999997
sbag1
(g54
g3
NtRp1474
(dp1475
g57
g1465
sg58
F23.79196
sg59
(lp1476
g1449
asg46
F14.401899999999999
sbasg41
g1474
sg42
(lp1477
sg45
I00
sg46
F23.791899999999998
sg35
I00
sg47
I2
sbag1
(g11
g3
NtRp1478
(dp1479
g14
I81
sg15
(I5
I7
tp1480
sg16
g17
((ltRp1481
sg25
I00
sg37
Nsg31
S'ADJP'
p1482
sg38
I00
sg39
(lp1483
g1
(g54
g3
NtRp1484
(dp1485
g57
g1478
sg58
F39.681129999999996
sg59
(lp1486
g346
ag1077
asg46
F29.7027
sbag1
(g54
g3
NtRp1487
(dp1488
g57
g1478
sg58
F37.686549999999997
sg59
(lp1489
g346
ag1097
asg46
F9.2506500000000003
sbag1
(g54
g3
NtRp1490
(dp1491
g57
g1478
sg58
F30.086970000000001
sg59
(lp1492
g346
ag1116
asg46
F2.4542700000000002
sbasg41
g1490
sg42
(lp1493
sg45
I00
sg46
F30.087
sg35
I00
sg47
I3
sbag1
(g11
g3
NtRp1494
(dp1495
g14
I82
sg15
(I5
I7
tp1496
sg16
g17
((ltRp1497
sg25
I00
sg37
Nsg31
S'ADJP'
p1498
sg38
I01
sg39
(lp1499
g1
(g54
g3
NtRp1500
(dp1501
g57
g1494
sg58
F72.249399999999994
sg59
(lp1502
g1478
asg46
F42.162399999999998
sbasg41
g1500
sg42
(lp1503
sg45
I00
sg46
F72.249300000000005
sg35
I00
sg47
I1
sbag1
(g11
g3
NtRp1504
(dp1505
g14
I83
sg15
(I5
I7
tp1506
sg16
g17
((ltRp1507
sg25
I00
sg37
Nsg31
S'ADJP'
p1508
sg38
I00
sg39
(lp1509
g1
(g54
g3
NtRp1510
(dp1511
g57
g1504
sg58
F39.663029999999999
sg59
(lp1512
g346
ag1077
asg46
F29.6846
sbag1
(g54
g3
NtRp1513
(dp1514
g57
g1504
sg58
F37.668440000000004
sg59
(lp1515
g346
ag1097
asg46
F9.2325400000000002
sbag1
(g54
g3
NtRp1516
(dp1517
g57
g1504
sg58
F30.068860000000001
sg59
(lp1518
g346
ag1116
asg46
F2.4361600000000001
sbasg41
g1516
sg42
(lp1519
sg45
I00
sg46
F30.068899999999999
sg35
I00
sg47
I3
sbag1
(g11
g3
NtRp1520
(dp1521
g14
I84
sg15
(I5
I7
tp1522
sg16
g17
((ltRp1523
sg25
I00
sg37
Nsg31
S'ADJP'
p1524
sg38
I01
sg39
(lp1525
g1
(g54
g3
NtRp1526
(dp1527
g57
g1520
sg58
F73.122799999999998
sg59
(lp1528
g1504
asg46
F43.053899999999999
sbasg41
g1526
sg42
(lp1529
sg45
I00
sg46
F73.122699999999995
sg35
I00
sg47
I1
sbag1
(g11
g3
NtRp1530
(dp1531
g14
I85
sg15
(I5
I7
tp1532
sg16
g17
((ltRp1533
sg25
I00
sg37
Nsg31
S'ADJP'
p1534
sg38
I00
sg39
(lp1535
g1
(g54
g3
NtRp1536
(dp1537
g57
g1530
sg58
F41.980829999999997
sg59
(lp1538
g346
ag424
asg46
F32.002400000000002
sbag1
(g54
g3
NtRp1539
(dp1540
g57
g1530
sg58
F23.661459999999998
sg59
(lp1541
g346
ag437
asg46
F4.9122599999999998
sbag1
(g54
g3
NtRp1542
(dp1543
g57
g1530
sg58
F32.538020000000003
sg59
(lp1544
g346
ag460
asg46
F4.9053199999999997
sbasg41
g1539
sg42
(lp1545
sg45
I00
sg46
F23.6615
sg35
I00
sg47
I3
sbag1
(g11
g3
NtRp1546
(dp1547
g14
I86
sg15
(I5
I7
tp1548
sg16
g17
((ltRp1549
sg25
I00
sg37
Nsg31
S'VP'
p1550
sg38
I00
sg39
(lp1551
g1
(g54
g3
NtRp1552
(dp1553
g57
g1546
sg58
F10.032671000000001
sg59
(lp1554
g346
ag501
asg46
F-0.200429
sbag1
(g54
g3
NtRp1555
(dp1556
g57
g1546
sg58
F46.8628
sg59
(lp1557
g346
ag524
asg46
F12.306800000000001
sbasg41
g1552
sg42
(lp1558
sg45
I00
sg46
F10.0327
sg35
I00
sg47
I2
sbag1
(g11
g3
NtRp1559
(dp1560
g14
I87
sg15
(I5
I7
tp1561
sg16
g17
((ltRp1562
sg25
I00
sg37
Nsg31
S'S'
sg38
I00
sg39
(lp1563
g1
(g54
g3
NtRp1564
(dp1565
g57
g1559
sg58
F24.475895000000001
sg59
(lp1566
g1530
asg46
F0.81439499999999998
sbag1
(g54
g3
NtRp1567
(dp1568
g57
g1559
sg58
F20.129899999999999
sg59
(lp1569
g1546
asg46
F10.097200000000001
sbasg41
g1567
sg42
(lp1570
sg45
I00
sg46
F20.129899999999999
sg35
I00
sg47
I2
sbag1
(g11
g3
NtRp1571
(dp1572
g14
I88
sg15
(I5
I7
tp1573
sg16
g17
((ltRp1574
sg25
I00
sg37
Nsg31
S'NP'
p1575
sg38
I00
sg39
(lp1576
g1
(g54
g3
NtRp1577
(dp1578
g57
g1571
sg58
F45.935980000000001
sg59
(lp1579
g584
ag594
asg46
F21.313500000000001
sbasg41
g1577
sg42
(lp1580
sg45
I00
sg46
F45.936
sg35
I00
sg47
I1
sbag1
(g11
g3
NtRp1581
(dp1582
g14
I89
sg15
(I5
I7
tp1583
sg16
g17
((ltRp1584
sg25
I00
sg37
Nsg31
S'S'
sg38
I00
sg39
(lp1585
g1
(g54
g3
NtRp1586
(dp1587
g57
g1581
sg58
F46.117189000000003
sg59
(lp1588
g1571
asg46
F0.18118899999999999
sbasg41
g1586
sg42
(lp1589
sg45
I00
sg46
F46.117199999999997
sg35
I00
sg47
I1
sbag1
(g11
g3
NtRp1590
(dp1591
g14
I90
sg15
(I5
I7
tp1592
sg16
g17
((ltRp1593
sg25
I00
sg37
Nsg31
S'NP'
p1594
sg38
I00
sg39
(lp1595
g1
(g54
g3
NtRp1596
(dp1597
g57
g1590
sg58
F11.242285000000001
sg59
(lp1598
g646
ag294
asg46
F0.57308499999999996
sbag1
(g54
g3
NtRp1599
(dp1600
g57
g1590
sg58
F30.891799999999996
sg59
(lp1601
g659
ag294
asg46
F11.3012
sbag1
(g54
g3
NtRp1602
(dp1603
g57
g1590
sg58
F47.136600000000001
sg59
(lp1604
g672
ag294
asg46
F16.716000000000001
sbasg41
g1596
sg42
(lp1605
sg45
I00
sg46
F11.2423
sg35
I00
sg47
I3
sbag1
(g11
g3
NtRp1606
(dp1607
g14
I94
sg15
(I5
I7
tp1608
sg16
g17
((ltRp1609
sg25
I00
sg37
Nsg31
S'S'
sg38
I00
sg39
(lp1610
g1
(g54
g3
NtRp1611
(dp1612
g57
g1606
sg58
F11.423489
sg59
(lp1613
g1590
asg46
F0.18118899999999999
sbag1
(g54
g3
NtRp1614
(dp1615
g57
g1606
sg58
F31.56982
sg59
(lp1616
g1346
ag1125
asg46
F4.0839400000000001
sbasg41
g1611
sg42
(lp1617
sg45
I00
sg46
F11.423500000000001
sg35
I00
sg47
I2
sbag1
(g11
g3
NtRp1618
(dp1619
g14
I95
sg15
(I5
I7
tp1620
sg16
g17
((ltRp1621
sg25
I00
sg37
Nsg31
S'S'
sg38
I01
sg39
(lp1622
g1
(g54
g3
NtRp1623
(dp1624
g57
g1618
sg58
F74.951400000000007
sg59
(lp1625
g1559
asg46
F54.8215
sbag1
(g54
g3
NtRp1626
(dp1627
g57
g1618
sg58
F99.704700000000003
sg59
(lp1628
g1581
asg46
F53.587499999999999
sbag1
(g54
g3
NtRp1629
(dp1630
g57
g1618
sg58
F61.204499999999996
sg59
(lp1631
g1606
asg46
F49.780999999999999
sbasg41
g1629
sg42
(lp1632
sg45
I00
sg46
F61.204500000000003
sg35
I00
sg47
I3
sbag1
(g11
g3
NtRp1633
(dp1634
g14
I96
sg15
(I5
I7
tp1635
sg16
g17
((ltRp1636
sg25
I00
sg37
Nsg31
S'S'
sg38
I00
sg39
(lp1637
g1
(g54
g3
NtRp1638
(dp1639
g57
g1633
sg58
F24.475895000000001
sg59
(lp1640
g1530
asg46
F0.81439499999999998
sbag1
(g54
g3
NtRp1641
(dp1642
g57
g1633
sg58
F20.129899999999999
sg59
(lp1643
g1546
asg46
F10.097200000000001
sbasg41
g1641
sg42
(lp1644
sg45
I00
sg46
F20.129899999999999
sg35
I00
sg47
I2
sbag1
(g11
g3
NtRp1645
(dp1646
g14
I97
sg15
(I5
I7
tp1647
sg16
g17
((ltRp1648
sg25
I00
sg37
Nsg31
S'S'
sg38
I00
sg39
(lp1649
g1
(g54
g3
NtRp1650
(dp1651
g57
g1645
sg58
F46.117189000000003
sg59
(lp1652
g1571
asg46
F0.18118899999999999
sbasg41
g1650
sg42
(lp1653
sg45
I00
sg46
F46.117199999999997
sg35
I00
sg47
I1
sbag1
(g11
g3
NtRp1654
(dp1655
g14
I98
sg15
(I5
I7
tp1656
sg16
g17
((ltRp1657
sg25
I00
sg37
Nsg31
S'S'
sg38
I00
sg39
(lp1658
g1
(g54
g3
NtRp1659
(dp1660
g57
g1654
sg58
F11.423489
sg59
(lp1661
g1590
asg46
F0.18118899999999999
sbag1
(g54
g3
NtRp1662
(dp1663
g57
g1654
sg58
F31.56982
sg59
(lp1664
g1346
ag1125
asg46
F4.0839400000000001
sbasg41
g1659
sg42
(lp1665
sg45
I00
sg46
F11.423500000000001
sg35
I00
sg47
I2
sbag1
(g11
g3
NtRp1666
(dp1667
g14
I99
sg15
(I5
I7
tp1668
sg16
g17
((ltRp1669
sg25
I00
sg37
Nsg31
S'S'
sg38
I01
sg39
(lp1670
g1
(g54
g3
NtRp1671
(dp1672
g57
g1666
sg58
F74.951400000000007
sg59
(lp1673
g1633
asg46
F54.8215
sbag1
(g54
g3
NtRp1674
(dp1675
g57
g1666
sg58
F99.704700000000003
sg59
(lp1676
g1645
asg46
F53.587499999999999
sbag1
(g54
g3
NtRp1677
(dp1678
g57
g1666
sg58
F61.204499999999996
sg59
(lp1679
g1654
asg46
F49.780999999999999
sbasg41
g1677
sg42
(lp1680
sg45
I00
sg46
F61.204500000000003
sg35
I00
sg47
I3
sbag1
(g11
g3
NtRp1681
(dp1682
g14
I100
sg15
(I5
I7
tp1683
sg16
g17
((ltRp1684
sg25
I00
sg37
Nsg31
S'S'
sg38
I00
sg39
(lp1685
g1
(g54
g3
NtRp1686
(dp1687
g57
g1681
sg58
F29.634530000000002
sg59
(lp1688
g415
asg46
F5.9456300000000004
sbag1
(g54
g3
NtRp1689
(dp1690
g57
g1681
sg58
F19.674199999999999
sg59
(lp1691
g492
asg46
F9.6415000000000006
sbasg41
g1689
sg42
(lp1692
sg45
I00
sg46
F19.674199999999999
sg35
I00
sg47
I2
sbag1
(g11
g3
NtRp1693
(dp1694
g14
I101
sg15
(I5
I7
tp1695
sg16
g17
((ltRp1696
sg25
I00
sg37
Nsg31
S'SBAR'
p1697
sg38
I00
sg39
(lp1698
g1
(g54
g3
NtRp1699
(dp1700
g57
g1693
sg58
F33.431699999999999
sg59
(lp1701
g1681
asg46
F13.7575
sbasg41
g1699
sg42
(lp1702
sg45
I00
sg46
F33.431699999999999
sg35
I00
sg47
I1
sbag1
(g11
g3
NtRp1703
(dp1704
g14
I102
sg15
(I5
I7
tp1705
sg16
g17
((ltRp1706
sg25
I00
sg37
Nsg31
S'S'
sg38
I00
sg39
(lp1707
g1
(g54
g3
NtRp1708
(dp1709
g57
g1703
sg58
F45.378921000000005
sg59
(lp1710
g575
asg46
F0.51692099999999996
sbasg41
g1708
sg42
(lp1711
sg45
I00
sg46
F45.378900000000002
sg35
I00
sg47
I1
sbag1
(g11
g3
NtRp1712
(dp1713
g14
I103
sg15
(I5
I7
tp1714
sg16
g17
((ltRp1715
sg25
I00
sg37
Nsg31
S'SBAR'
p1716
sg38
I00
sg39
(lp1717
g1
(g54
g3
NtRp1718
(dp1719
g57
g1712
sg58
F47.087499999999999
sg59
(lp1720
g1703
asg46
F1.7085999999999999
sbasg41
g1718
sg42
(lp1721
sg45
I00
sg46
F47.087499999999999
sg35
I00
sg47
I1
sbag1
(g11
g3
NtRp1722
(dp1723
g14
I104
sg15
(I5
I7
tp1724
sg16
g17
((ltRp1725
sg25
I00
sg37
Nsg31
S'S'
sg38
I00
sg39
(lp1726
g1
(g54
g3
NtRp1727
(dp1728
g57
g1722
sg58
F11.850021
sg59
(lp1729
g637
asg46
F0.51692099999999996
sbag1
(g54
g3
NtRp1730
(dp1731
g57
g1722
sg58
F29.937939999999998
sg59
(lp1732
g696
ag716
asg46
F2.2705099999999998
sbasg41
g1727
sg42
(lp1733
sg45
I00
sg46
F11.85
sg35
I00
sg47
I2
sbag1
(g11
g3
NtRp1734
(dp1735
g14
I105
sg15
(I5
I7
tp1736
sg16
g17
((ltRp1737
sg25
I00
sg37
Nsg31
S'SBAR'
p1738
sg38
I00
sg39
(lp1739
g1
(g54
g3
NtRp1740
(dp1741
g57
g1734
sg58
F13.5586
sg59
(lp1742
g1722
asg46
F1.7085999999999999
sbasg41
g1740
sg42
(lp1743
sg45
I00
sg46
F13.5586
sg35
I00
sg47
I1
sbag1
(g11
g3
NtRp1744
(dp1745
g14
I106
sg15
(I5
I7
tp1746
sg16
g17
((ltRp1747
sg25
I00
sg37
Nsg31
S'SBAR'
p1748
sg38
I01
sg39
(lp1749
g1
(g54
g3
NtRp1750
(dp1751
g57
g1744
sg58
F80.266899999999993
sg59
(lp1752
g1693
asg46
F46.8352
sbag1
(g54
g3
NtRp1753
(dp1754
g57
g1744
sg58
F66.986999999999995
sg59
(lp1755
g1712
asg46
F19.8995
sbag1
(g54
g3
NtRp1756
(dp1757
g57
g1744
sg58
F29.651600000000002
sg59
(lp1758
g1734
asg46
F16.093
sbasg41
g1756
sg42
(lp1759
sg45
I00
sg46
F29.651599999999998
sg35
I00
sg47
I3
sbag1
(g11
g3
NtRp1760
(dp1761
g14
I109
sg15
(I5
I7
tp1762
sg16
g17
((ltRp1763
sg25
I00
sg37
Nsg31
S'NP'
p1764
sg38
I00
sg39
(lp1765
g1
(g54
g3
NtRp1766
(dp1767
g57
g1760
sg58
F33.026660000000007
sg59
(lp1768
g1286
ag1067
asg46
F16.406300000000002
sbasg41
g1766
sg42
(lp1769
sg45
I00
sg46
F33.026600000000002
sg35
I00
sg47
I1
sbag1
(g11
g3
NtRp1770
(dp1771
g14
I110
sg15
(I5
I7
tp1772
sg16
g17
((ltRp1773
sg25
I00
sg37
Nsg31
S'NP'
p1774
sg38
I00
sg39
(lp1775
g1
(g54
g3
NtRp1776
(dp1777
g57
g1770
sg58
F19.384889999999999
sg59
(lp1778
g1296
ag294
asg46
F8.7156900000000004
sbag1
(g54
g3
NtRp1779
(dp1780
g57
g1770
sg58
F9.1884700000000006
sg59
(lp1781
g1306
ag294
asg46
F1.33487
sbag1
(g54
g3
NtRp1782
(dp1783
g57
g1770
sg58
F62.372
sg59
(lp1784
g1326
ag294
asg46
F28.4404
sbasg41
g1779
sg42
(lp1785
sg45
I00
sg46
F9.1884700000000006
sg35
I00
sg47
I3
sbag1
(g11
g3
NtRp1786
(dp1787
g14
I111
sg15
(I5
I7
tp1788
sg16
g17
((ltRp1789
sg25
I00
sg37
Nsg31
S'NP'
p1790
sg38
I01
sg39
(lp1791
g1
(g54
g3
NtRp1792
(dp1793
g57
g1786
sg58
F84.369100000000003
sg59
(lp1794
g1760
asg46
F51.342500000000001
sbag1
(g54
g3
NtRp1795
(dp1796
g57
g1786
sg58
F15.707510000000001
sg59
(lp1797
g1770
asg46
F6.5190400000000004
sbasg41
g1795
sg42
(lp1798
sg45
I00
sg46
F15.7075
sg35
I00
sg47
I2
sbag890
ag933
ag881
ag1012
ag1025
ag1003
ag1
(g11
g3
NtRp1799
(dp1800
g14
I140
sg15
(I5
I7
tp1801
sg16
g17
((ltRp1802
sg25
I00
sg37
Nsg31
S'S'
sg38
I00
sg39
(lp1803
g1
(g54
g3
NtRp1804
(dp1805
g57
g1799
sg58
F24.475895000000001
sg59
(lp1806
g1530
asg46
F0.81439499999999998
sbag1
(g54
g3
NtRp1807
(dp1808
g57
g1799
sg58
F20.129899999999999
sg59
(lp1809
g1546
asg46
F10.097200000000001
sbasg41
g1807
sg42
(lp1810
sg45
I00
sg46
F20.129899999999999
sg35
I00
sg47
I2
sbag1
(g11
g3
NtRp1811
(dp1812
g14
I141
sg15
(I5
I7
tp1813
sg16
g17
((ltRp1814
sg25
I00
sg37
Nsg31
S'S'
sg38
I00
sg39
(lp1815
g1
(g54
g3
NtRp1816
(dp1817
g57
g1811
sg58
F46.117189000000003
sg59
(lp1818
g1571
asg46
F0.18118899999999999
sbasg41
g1816
sg42
(lp1819
sg45
I00
sg46
F46.117199999999997
sg35
I00
sg47
I1
sbag1
(g11
g3
NtRp1820
(dp1821
g14
I142
sg15
(I5
I7
tp1822
sg16
g17
((ltRp1823
sg25
I00
sg37
Nsg31
S'S'
sg38
I00
sg39
(lp1824
g1
(g54
g3
NtRp1825
(dp1826
g57
g1820
sg58
F11.423489
sg59
(lp1827
g1590
asg46
F0.18118899999999999
sbag1
(g54
g3
NtRp1828
(dp1829
g57
g1820
sg58
F31.56982
sg59
(lp1830
g1346
ag1125
asg46
F4.0839400000000001
sbasg41
g1825
sg42
(lp1831
sg45
I00
sg46
F11.423500000000001
sg35
I00
sg47
I2
sbag1
(g11
g3
NtRp1832
(dp1833
g14
I143
sg15
(I5
I7
tp1834
sg16
g17
((ltRp1835
sg25
I00
sg37
Nsg31
S'S'
sg38
I01
sg39
(lp1836
g1
(g54
g3
NtRp1837
(dp1838
g57
g1832
sg58
F74.951400000000007
sg59
(lp1839
g1799
asg46
F54.8215
sbag1
(g54
g3
NtRp1840
(dp1841
g57
g1832
sg58
F99.704700000000003
sg59
(lp1842
g1811
asg46
F53.587499999999999
sbag1
(g54
g3
NtRp1843
(dp1844
g57
g1832
sg58
F61.204499999999996
sg59
(lp1845
g1820
asg46
F49.780999999999999
sbasg41
g1843
sg42
(lp1846
sg45
I00
sg46
F61.204500000000003
sg35
I00
sg47
I3
sbag1
(g11
g3
NtRp1847
(dp1848
g14
I157
sg15
(I5
I7
tp1849
sg16
g17
((ltRp1850
sg25
I00
sg37
Nsg31
S'VP'
p1851
sg38
I00
sg39
(lp1852
g1
(g54
g3
NtRp1853
(dp1854
g57
g1847
sg58
F13.379960000000001
sg59
(lp1855
g346
ag1183
asg46
F3.1468600000000002
sbag1
(g54
g3
NtRp1856
(dp1857
g57
g1847
sg58
F37.676849999999995
sg59
(lp1858
g346
ag1202
asg46
F3.1208499999999999
sbasg41
g1853
sg42
(lp1859
sg45
I00
sg46
F13.379899999999999
sg35
I00
sg47
I2
sbag1
(g11
g3
NtRp1860
(dp1861
g14
I158
sg15
(I5
I7
tp1862
sg16
g17
((ltRp1863
sg25
I00
sg37
Nsg31
S'VP'
p1864
sg38
I01
sg39
(lp1865
g1
(g54
g3
NtRp1866
(dp1867
g57
g1860
sg58
F65.688500000000005
sg59
(lp1868
g1847
asg46
F52.308599999999998
sbasg41
g1866
sg42
(lp1869
sg45
I00
sg46
F65.688500000000005
sg35
I00
sg47
I1
sbag1
(g11
g3
NtRp1870
(dp1871
g14
I159
sg15
(I5
I7
tp1872
sg16
g17
((ltRp1873
sg25
I00
sg37
Nsg31
S'VP'
p1874
sg38
I00
sg39
(lp1875
g1
(g54
g3
NtRp1876
(dp1877
g57
g1870
sg58
F13.379960000000001
sg59
(lp1878
g346
ag1183
asg46
F3.1468600000000002
sbag1
(g54
g3
NtRp1879
(dp1880
g57
g1870
sg58
F37.676849999999995
sg59
(lp1881
g346
ag1202
asg46
F3.1208499999999999
sbasg41
g1876
sg42
(lp1882
sg45
I00
sg46
F13.379899999999999
sg35
I00
sg47
I2
sbag1
(g11
g3
NtRp1883
(dp1884
g14
I160
sg15
(I5
I7
tp1885
sg16
g17
((ltRp1886
sg25
I00
sg37
Nsg31
S'VP'
p1887
sg38
I01
sg39
(lp1888
g1
(g54
g3
NtRp1889
(dp1890
g57
g1883
sg58
F65.688500000000005
sg59
(lp1891
g1870
asg46
F52.308599999999998
sbasg41
g1889
sg42
(lp1892
sg45
I00
sg46
F65.688500000000005
sg35
I00
sg47
I1
sbag1
(g11
g3
NtRp1893
(dp1894
g14
I163
sg15
(I5
I7
tp1895
sg16
g17
((ltRp1896
sg25
I00
sg37
Nsg31
S'S'
sg38
I00
sg39
(lp1897
g1
(g54
g3
NtRp1898
(dp1899
g57
g1893
sg58
F23.940691000000001
sg59
(lp1900
g1530
asg46
F0.27919100000000002
sbag1
(g54
g3
NtRp1901
(dp1902
g57
g1893
sg58
F22.301299999999998
sg59
(lp1903
g1546
asg46
F12.268599999999999
sbasg41
g1901
sg42
(lp1904
sg45
I00
sg46
F22.301300000000001
sg35
I00
sg47
I2
sbag1
(g11
g3
NtRp1905
(dp1906
g14
I164
sg15
(I5
I7
tp1907
sg16
g17
((ltRp1908
sg25
I00
sg37
Nsg31
S'S'
sg38
I00
sg39
(lp1909
g1
(g54
g3
NtRp1910
(dp1911
g57
g1905
sg58
F46.117189000000003
sg59
(lp1912
g1571
asg46
F0.18118899999999999
sbasg41
g1910
sg42
(lp1913
sg45
I00
sg46
F46.117199999999997
sg35
I00
sg47
I1
sbag1
(g11
g3
NtRp1914
(dp1915
g14
I165
sg15
(I5
I7
tp1916
sg16
g17
((ltRp1917
sg25
I00
sg37
Nsg31
S'S'
sg38
I00
sg39
(lp1918
g1
(g54
g3
NtRp1919
(dp1920
g57
g1914
sg58
F11.423489
sg59
(lp1921
g1590
asg46
F0.18118899999999999
sbag1
(g54
g3
NtRp1922
(dp1923
g57
g1914
sg58
F31.56982
sg59
(lp1924
g1346
ag1125
asg46
F4.0839400000000001
sbasg41
g1919
sg42
(lp1925
sg45
I00
sg46
F11.423500000000001
sg35
I00
sg47
I2
sbag1
(g11
g3
NtRp1926
(dp1927
g14
I166
sg15
(I5
I7
tp1928
sg16
g17
((ltRp1929
sg25
I00
sg37
Nsg31
S'S'
sg38
I01
sg39
(lp1930
g1
(g54
g3
NtRp1931
(dp1932
g57
g1926
sg58
F64.500799999999998
sg59
(lp1933
g1893
asg46
F42.1995
sbag1
(g54
g3
NtRp1934
(dp1935
g57
g1926
sg58
F99.704700000000003
sg59
(lp1936
g1905
asg46
F53.587499999999999
sbag1
(g54
g3
NtRp1937
(dp1938
g57
g1926
sg58
F61.204499999999996
sg59
(lp1939
g1914
asg46
F49.780999999999999
sbasg41
g1937
sg42
(lp1940
sg45
I00
sg46
F61.204500000000003
sg35
I00
sg47
I3
sbag1
(g11
g3
NtRp1941
(dp1942
g14
I167
sg15
(I5
I7
tp1943
sg16
g17
((ltRp1944
sg25
I00
sg37
Nsg31
S'NP'
p1945
sg38
I00
sg39
(lp1946
g1
(g54
g3
NtRp1947
(dp1948
g57
g1941
sg58
F36.177160000000001
sg59
(lp1949
g1286
ag1067
asg46
F19.556799999999999
sbasg41
g1947
sg42
(lp1950
sg45
I00
sg46
F36.177199999999999
sg35
I00
sg47
I1
sbag1
(g11
g3
NtRp1951
(dp1952
g14
I168
sg15
(I5
I7
tp1953
sg16
g17
((ltRp1954
sg25
I00
sg37
Nsg31
S'NP'
p1955
sg38
I00
sg39
(lp1956
g1
(g54
g3
NtRp1957
(dp1958
g57
g1951
sg58
F19.33802
sg59
(lp1959
g1296
ag294
asg46
F8.6688200000000002
sbag1
(g54
g3
NtRp1960
(dp1961
g57
g1951
sg58
F9.1416000000000004
sg59
(lp1962
g1306
ag294
asg46
F1.288
sbag1
(g54
g3
NtRp1963
(dp1964
g57
g1951
sg58
F62.325100000000006
sg59
(lp1965
g1326
ag294
asg46
F28.3935
sbasg41
g1960
sg42
(lp1966
sg45
I00
sg46
F9.1416000000000004
sg35
I00
sg47
I3
sbag1
(g11
g3
NtRp1967
(dp1968
g14
I169
sg15
(I5
I7
tp1969
sg16
g17
((ltRp1970
sg25
I00
sg37
Nsg31
S'NP'
p1971
sg38
I01
sg39
(lp1972
g1
(g54
g3
NtRp1973
(dp1974
g57
g1967
sg58
F89.540300000000002
sg59
(lp1975
g1941
asg46
F53.363100000000003
sbag1
(g54
g3
NtRp1976
(dp1977
g57
g1967
sg58
F17.681280000000001
sg59
(lp1978
g1951
asg46
F8.5396800000000006
sbasg41
g1976
sg42
(lp1979
sg45
I00
sg46
F17.6813
sg35
I00
sg47
I2
sbag1
(g11
g3
NtRp1980
(dp1981
g14
I170
sg15
(I5
I7
tp1982
sg16
g17
((ltRp1983
sg25
I00
sg37
Nsg31
S'SBAR'
p1984
sg38
I00
sg39
(lp1985
g1
(g54
g3
NtRp1986
(dp1987
g57
g1980
sg58
F33.431699999999999
sg59
(lp1988
g1681
asg46
F13.7575
sbasg41
g1986
sg42
(lp1989
sg45
I00
sg46
F33.431699999999999
sg35
I00
sg47
I1
sbag1
(g11
g3
NtRp1990
(dp1991
g14
I171
sg15
(I5
I7
tp1992
sg16
g17
((ltRp1993
sg25
I00
sg37
Nsg31
S'SBAR'
p1994
sg38
I00
sg39
(lp1995
g1
(g54
g3
NtRp1996
(dp1997
g57
g1990
sg58
F47.087499999999999
sg59
(lp1998
g1703
asg46
F1.7085999999999999
sbasg41
g1996
sg42
(lp1999
sg45
I00
sg46
F47.087499999999999
sg35
I00
sg47
I1
sbag1
(g11
g3
NtRp2000
(dp2001
g14
I172
sg15
(I5
I7
tp2002
sg16
g17
((ltRp2003
sg25
I00
sg37
Nsg31
S'SBAR'
p2004
sg38
I00
sg39
(lp2005
g1
(g54
g3
NtRp2006
(dp2007
g57
g2000
sg58
F13.5586
sg59
(lp2008
g1722
asg46
F1.7085999999999999
sbasg41
g2006
sg42
(lp2009
sg45
I00
sg46
F13.5586
sg35
I00
sg47
I1
sbag1
(g11
g3
NtRp2010
(dp2011
g14
I173
sg15
(I5
I7
tp2012
sg16
g17
((ltRp2013
sg25
I00
sg37
Nsg31
S'SBAR'
p2014
sg38
I01
sg39
(lp2015
g1
(g54
g3
NtRp2016
(dp2017
g57
g2010
sg58
F80.266899999999993
sg59
(lp2018
g1980
asg46
F46.8352
sbag1
(g54
g3
NtRp2019
(dp2020
g57
g2010
sg58
F66.986999999999995
sg59
(lp2021
g1990
asg46
F19.8995
sbag1
(g54
g3
NtRp2022
(dp2023
g57
g2010
sg58
F29.651600000000002
sg59
(lp2024
g2000
asg46
F16.093
sbasg41
g2022
sg42
(lp2025
sg45
I00
sg46
F29.651599999999998
sg35
I00
sg47
I3
sbasg220
(lp2026
g218
ag1
(g11
g3
NtRp2027
(dp2028
g14
I13
sg15
(I4
I5
tp2029
sg16
g17
((ltRp2030
sg25
I00
sg37
Nsg31
S'RB'
p2031
sg38
I01
sg39
(lp2032
g1
(g54
g3
NtRp2033
(dp2034
g57
g2027
sg58
F-8.5751299999999997
sg59
(lp2035
g218
asg46
F-8.5751299999999997
sbasg41
g2033
sg42
(lp2036
sg45
I00
sg46
F-8.5751299999999997
sg35
I00
sg47
I1
sbag1
(g11
g3
NtRp2037
(dp2038
g14
I71
sg15
(I4
I5
tp2039
sg16
g17
((ltRp2040
sg25
I00
sg37
Nsg31
S'ADVP'
p2041
sg38
I00
sg39
(lp2042
g1
(g54
g3
NtRp2043
(dp2044
g57
g2037
sg58
F0.65314399999999995
sg59
(lp2045
g218
asg46
F0.65314399999999995
sbasg41
g2043
sg42
(lp2046
sg45
I00
sg46
F0.65314399999999995
sg35
I00
sg47
I1
sbag1
(g11
g3
NtRp2047
(dp2048
g14
I72
sg15
(I4
I5
tp2049
sg16
g17
((ltRp2050
sg25
I00
sg37
Nsg31
S'ADVP'
p2051
sg38
I01
sg39
(lp2052
g1
(g54
g3
NtRp2053
(dp2054
g57
g2047
sg58
F11.055143999999999
sg59
(lp2055
g2037
asg46
F10.401999999999999
sbasg41
g2053
sg42
(lp2056
sg45
I00
sg46
F11.055099999999999
sg35
I00
sg47
I1
sbag1
(g11
g3
NtRp2057
(dp2058
g14
I107
sg15
(I4
I5
tp2059
sg16
g17
((ltRp2060
sg25
I00
sg37
Nsg31
S'NP'
p2061
sg38
I00
sg39
(lp2062
g1
(g54
g3
NtRp2063
(dp2064
g57
g2057
sg58
F0.28314
sg59
(lp2065
g218
asg46
F0.28314
sbasg41
g2063
sg42
(lp2066
sg45
I00
sg46
F0.28314
sg35
I00
sg47
I1
sbag1
(g11
g3
NtRp2067
(dp2068
g14
I108
sg15
(I4
I5
tp2069
sg16
g17
((ltRp2070
sg25
I00
sg37
Nsg31
S'NP'
p2071
sg38
I01
sg39
(lp2072
g1
(g54
g3
NtRp2073
(dp2074
g57
g2067
sg58
F33.586040000000004
sg59
(lp2075
g2057
asg46
F33.302900000000001
sbasg41
g2073
sg42
(lp2076
sg45
I00
sg46
F33.585999999999999
sg35
I00
sg47
I1
sbag767
ag789
ag780
ag805
ag850
ag841
ag993
ag1241
ag1263
ag1254
ag1
(g11
g3
NtRp2077
(dp2078
g14
I161
sg15
(I4
I5
tp2079
sg16
g17
((ltRp2080
sg25
I00
sg37
Nsg31
S'PRT'
p2081
sg38
I00
sg39
(lp2082
g1
(g54
g3
NtRp2083
(dp2084
g57
g2077
sg58
F0.18171699999999999
sg59
(lp2085
g218
asg46
F0.18171699999999999
sbasg41
g2083
sg42
(lp2086
sg45
I00
sg46
F0.18171699999999999
sg35
I00
sg47
I1
sbag1
(g11
g3
NtRp2087
(dp2088
g14
I162
sg15
(I4
I5
tp2089
sg16
g17
((ltRp2090
sg25
I00
sg37
Nsg31
S'PRT'
p2091
sg38
I01
sg39
(lp2092
g1
(g54
g3
NtRp2093
(dp2094
g57
g2087
sg58
F7.8051370000000002
sg59
(lp2095
g2077
asg46
F7.6234200000000003
sbasg41
g2093
sg42
(lp2096
sg45
I00
sg46
F7.8051399999999997
sg35
I00
sg47
I1
sbas(I2
I3
tp2097
(lp2098
g1
(g11
g3
NtRp2099
(dp2100
g14
I8
sg15
g2097
sg16
g17
((lp2101
g1
(g19
g3
NtRp2102
(dp2103
g22
S'it'
p2104
sg24
I00
sg25
I01
sg26
(lp2105
S'PRP'
p2106
asg29
S'(PRP it)'
p2107
sg31
g2106
sg32
Nsg33
(lp2108
g2104
asg15
g2097
sg35
I00
sbatRp2109
sg25
I01
sg37
Nsg31
g2106
sg38
I00
sg39
(lp2110
sg41
Nsg22
g2104
sg42
(lp2111
(F-0
g2102
tp2112
asg45
I01
sg46
F-0
sg35
I00
sg47
I0
sbag1
(g11
g3
NtRp2113
(dp2114
g14
I9
sg15
(I2
I3
tp2115
sg16
g17
((ltRp2116
sg25
I00
sg37
Nsg31
S'NP'
p2117
sg38
I00
sg39
(lp2118
g1
(g54
g3
NtRp2119
(dp2120
g57
g2113
sg58
F0.17232
sg59
(lp2121
g2099
asg46
F0.17232
sbasg41
g2119
sg42
(lp2122
sg45
I00
sg46
F0.17232
sg35
I00
sg47
I1
sbag1
(g11
g3
NtRp2123
(dp2124
g14
I10
sg15
(I2
I3
tp2125
sg16
g17
((ltRp2126
sg25
I00
sg37
Nsg31
S'NP'
p2127
sg38
I01
sg39
(lp2128
g1
(g54
g3
NtRp2129
(dp2130
g57
g2123
sg58
F-4.9132999999999996
sg59
(lp2131
g2113
asg46
F-5.0856199999999996
sbasg41
g2129
sg42
(lp2132
sg45
I00
sg46
F-4.9132999999999996
sg35
I00
sg47
I1
sbag1
(g11
g3
NtRp2133
(dp2134
g14
I186
sg15
(I2
I3
tp2135
sg16
g17
((ltRp2136
sg25
I00
sg37
Nsg31
S'NP'
p2137
sg38
I00
sg39
(lp2138
g1
(g54
g3
NtRp2139
(dp2140
g57
g2133
sg58
F0.41349599999999997
sg59
(lp2141
g2099
asg46
F0.41349599999999997
sbasg41
g2139
sg42
(lp2142
sg45
I00
sg46
F0.41349599999999997
sg35
I00
sg47
I1
sbag1
(g11
g3
NtRp2143
(dp2144
g14
I187
sg15
(I2
I3
tp2145
sg16
g17
((ltRp2146
sg25
I00
sg37
Nsg31
S'NP'
p2147
sg38
I01
sg39
(lp2148
g1
(g54
g3
NtRp2149
(dp2150
g57
g2143
sg58
F5.3707260000000003
sg59
(lp2151
g2133
asg46
F4.95723
sbasg41
g2149
sg42
(lp2152
sg45
I00
sg46
F5.3707200000000004
sg35
I00
sg47
I1
sbag1
(g11
g3
NtRp2153
(dp2154
g14
I191
sg15
(I2
I3
tp2155
sg16
g17
((ltRp2156
sg25
I00
sg37
Nsg31
S'NP'
p2157
sg38
I00
sg39
(lp2158
g1
(g54
g3
NtRp2159
(dp2160
g57
g2153
sg58
F0.41349599999999997
sg59
(lp2161
g2099
asg46
F0.41349599999999997
sbasg41
g2159
sg42
(lp2162
sg45
I00
sg46
F0.41349599999999997
sg35
I00
sg47
I1
sbag1
(g11
g3
NtRp2163
(dp2164
g14
I192
sg15
(I2
I3
tp2165
sg16
g17
((ltRp2166
sg25
I00
sg37
Nsg31
S'NP'
p2167
sg38
I01
sg39
(lp2168
g1
(g54
g3
NtRp2169
(dp2170
g57
g2163
sg58
F5.3707260000000003
sg59
(lp2171
g2153
asg46
F4.95723
sbasg41
g2169
sg42
(lp2172
sg45
I00
sg46
F5.3707200000000004
sg35
I00
sg47
I1
sbas(I3
I7
tp2173
(lp2174
g1
(g11
g3
NtRp2175
(dp2176
g14
I178
sg15
g2173
sg16
g17
((ltRp2177
sg25
I00
sg37
Nsg31
S'VP'
p2178
sg38
I00
sg39
(lp2179
g1
(g54
g3
NtRp2180
(dp2181
g57
g2175
sg58
F21.940629999999999
sg59
(lp2182
g1
(g11
g3
NtRp2183
(dp2184
g14
I11
sg15
(I3
I4
tp2185
sg16
g17
((lp2186
g1
(g19
g3
NtRp2187
(dp2188
g22
S'was'
p2189
sg24
I00
sg25
I01
sg26
(lp2190
S'VBD'
p2191
asg29
S'(VBD was)'
p2192
sg31
g2191
sg32
Nsg33
(lp2193
g2189
asg15
g2185
sg35
I00
sbatRp2194
sg25
I01
sg37
Nsg31
g2191
sg38
I00
sg39
(lp2195
sg41
Nsg22
g2189
sg42
(lp2196
(F-0
g2187
tp2197
asg45
I01
sg46
F-0
sg35
I00
sg47
I0
sbag2027
ag1426
asg46
F6.7238600000000002
sbag1
(g54
g3
NtRp2198
(dp2199
g57
g2175
sg58
F44.625050000000002
sg59
(lp2200
g2183
ag730
asg46
F6.3887499999999999
sbag1
(g54
g3
NtRp2201
(dp2202
g57
g2175
sg58
F41.636339999999997
sg59
(lp2203
g2183
ag2047
ag1465
asg46
F6.7893400000000002
sbag1
(g54
g3
NtRp2204
(dp2205
g57
g2175
sg58
F71.243160000000003
sg59
(lp2206
g2183
ag2027
ag1494
asg46
F7.5689900000000003
sbag1
(g54
g3
NtRp2207
(dp2208
g57
g2175
sg58
F101.53799999999998
sg59
(lp2209
g2183
ag2047
ag1520
asg46
F17.360199999999999
sbag1
(g54
g3
NtRp2210
(dp2211
g57
g2175
sg58
F60.305160000000001
sg59
(lp2212
g2183
ag2027
ag1618
asg46
F7.6757900000000001
sbag1
(g54
g3
NtRp2213
(dp2214
g57
g2175
sg58
F79.950680000000006
sg59
(lp2215
g2183
ag2047
ag1666
asg46
F7.6910800000000004
sbag1
(g54
g3
NtRp2216
(dp2217
g57
g2175
sg58
F52.022799999999997
sg59
(lp2218
g2183
ag2047
ag1744
asg46
F11.3161
sbag1
(g54
g3
NtRp2219
(dp2220
g57
g2175
sg58
F59.677099999999996
sg59
(lp2221
g2183
ag2067
ag1786
asg46
F10.383599999999999
sbag1
(g54
g3
NtRp2222
(dp2223
g57
g2175
sg58
F60.02355
sg59
(lp2224
g2183
ag1043
asg46
F2.16005
sbag1
(g54
g3
NtRp2225
(dp2226
g57
g2175
sg58
F102.02862
sg59
(lp2227
g2183
ag2067
ag1832
asg46
F7.2381200000000003
sbag1
(g54
g3
NtRp2228
(dp2229
g57
g2175
sg58
F107.2577
sg59
(lp2230
g2183
ag1275
ag1144
asg46
F7.7487000000000004
sbag1
(g54
g3
NtRp2231
(dp2232
g57
g2175
sg58
F81.02431
sg59
(lp2233
g2183
ag1275
ag1163
asg46
F24.886199999999999
sbag1
(g54
g3
NtRp2234
(dp2235
g57
g2175
sg58
F62.149800000000006
sg59
(lp2236
g2183
ag2027
ag1860
asg46
F5.0364300000000002
sbag1
(g54
g3
NtRp2237
(dp2238
g57
g2175
sg58
F82.912099999999995
sg59
(lp2239
g2183
ag2047
ag1883
asg46
F6.1684999999999999
sbag1
(g54
g3
NtRp2240
(dp2241
g57
g2175
sg58
F79.598640000000003
sg59
(lp2242
g2183
ag2087
ag1926
asg46
F10.589
sbag1
(g54
g3
NtRp2243
(dp2244
g57
g2175
sg58
F34.832270000000001
sg59
(lp2245
g2183
ag2087
ag1967
asg46
F9.3458299999999994
sbag1
(g54
g3
NtRp2246
(dp2247
g57
g2175
sg58
F49.629839999999994
sg59
(lp2248
g2183
ag2087
ag2010
asg46
F12.1731
sbag1
(g54
g3
NtRp2249
(dp2250
g57
g2175
sg58
F84.33372
sg59
(lp2251
g2183
ag2087
ag1366
ag1221
asg46
F15.713900000000001
sbasg41
g2180
sg42
(lp2252
sg45
I00
sg46
F21.9407
sg35
I00
sg47
I19
sbas(I0
I3
tp2253
(lp2254
g1
(g11
g3
NtRp2255
(dp2256
g14
I188
sg15
g2253
sg16
g17
((ltRp2257
sg25
I00
sg37
Nsg31
S'NP'
p2258
sg38
I00
sg39
(lp2259
g1
(g54
g3
NtRp2260
(dp2261
g57
g2255
sg58
F11.822189
sg59
(lp2262
g119
ag181
ag2143
asg46
F14.9117
sbasg41
g2260
sg42
(lp2263
sg45
I00
sg46
F11.8222
sg35
I00
sg47
I1
sbag1
(g11
g3
NtRp2264
(dp2265
g14
I193
sg15
(I0
I3
tp2266
sg16
g17
((ltRp2267
sg25
I00
sg37
Nsg31
S'NP'
p2268
sg38
I00
sg39
(lp2269
g1
(g54
g3
NtRp2270
(dp2271
g57
g2264
sg58
F5.6832799999999999
sg59
(lp2272
g129
ag190
ag2163
asg46
F8.4963700000000006
sbasg41
g2270
sg42
(lp2273
sg45
I00
sg46
F5.6832799999999999
sg35
I00
sg47
I1
sbag1
(g11
g3
NtRp2274
(dp2275
g14
I194
sg15
(I0
I3
tp2276
sg16
g17
((ltRp2277
sg25
I00
sg37
Nsg31
S'NP'
p2278
sg38
I01
sg39
(lp2279
g1
(g54
g3
NtRp2280
(dp2281
g57
g2274
sg58
F36.101500000000001
sg59
(lp2282
g2255
asg46
F24.279299999999999
sbag1
(g54
g3
NtRp2283
(dp2284
g57
g2274
sg58
F51.677179999999993
sg59
(lp2285
g2264
asg46
F45.993899999999996
sbasg41
g2280
sg42
(lp2286
sg45
I00
sg46
F36.101399999999998
sg35
I00
sg47
I2
sbas(I0
I8
tp2287
(lp2288
g1
(g11
g3
NtRp2289
(dp2290
g14
I197
sg15
g2287
sg16
g17
((ltRp2291
sg25
I00
sg37
Nsg31
S'S'
sg38
I00
sg39
(lp2292
g1
(g54
g3
NtRp2293
(dp2294
g57
g2289
sg58
F32.407709999999994
sg59
(lp2295
g86
ag163
ag2123
ag2175
ag1390
asg46
F8.9780499999999996
sbag1
(g54
g3
NtRp2296
(dp2297
g57
g2289
sg58
F29.808639999999997
sg59
(lp2298
g109
ag172
ag2123
ag2175
ag1390
asg46
F4.8132799999999998
sbag1
(g54
g3
NtRp2299
(dp2300
g57
g2289
sg58
F49.803655999999997
sg59
(lp2301
g2274
ag2175
ag1390
asg46
F0.98737600000000003
sbag1
(g54
g3
NtRp2302
(dp2303
g57
g2289
sg58
F62.56026
sg59
(lp2304
g139
ag199
ag2123
ag2175
ag1390
asg46
F47.753700000000002
sbasg41
g2296
sg42
(lp2305
sg45
I00
sg46
F29.808499999999999
sg35
I00
sg47
I4
sbag1
(g11
g3
NtRp2306
(dp2307
g14
I198
sg15
(I0
I8
tp2308
sg16
g17
((ltRp2309
sg25
I00
sg37
Nsg31
S'TOP'
p2310
sg38
I00
sg39
(lp2311
g1
(g54
g3
NtRp2312
(dp2313
g57
g2306
sg58
F29.859255999999998
sg59
(lp2314
g2289
asg46
F0.050756000000000003
sbasg41
g2312
sg42
(lp2315
sg45
I00
sg46
F29.859300000000001
sg35
I00
sg47
I1
sbag1
(g11
g3
NtRp2316
(dp2317
g14
I199
sg15
(I0
I8
tp2318
sg16
g17
((ltRp2319
sg25
I00
sg37
Nsg31
g2310
sg38
I01
sg39
(lp2320
g1
(g54
g3
NtRp2321
(dp2322
g57
g2316
sg58
F24.909269999999999
sg59
(lp2323
g2306
asg46
F-4.9500299999999999
sbasg41
g2321
sg42
(lp2324
sg45
I00
sg46
F24.909300000000002
sg35
I01
sg47
I1
sbasg2185
(lp2325
g2183
assS'len'
p2326
I8
sS'tag'
p2327
S'wsj_2300.0'
p2328
sS'numEdges'
p2329
I283
sS'delta'
p2330
F73.830549523967051
sS'nodes'
p2331
(dp2332
I1
g12
sI2
g48
sI3
g62
sI4
g76
sI5
g86
sI6
g151
sI7
g163
sI8
g2099
sI9
g2113
sI10
g2123
sI11
g2183
sI12
g218
sI13
g2027
sI14
g260
sI15
g1286
sI16
g294
sI17
g1057
sI18
g1067
sI19
g1401
sI20
g1296
sI21
g346
sI22
g1306
sI23
g1316
sI24
g1326
sI25
g1410
sI26
g1426
sI27
g251
sI28
g285
sI29
g276
sI30
g242
sI31
g324
sI32
g337
sI33
g373
sI34
g364
sI35
g315
sI36
g233
sI37
g424
sI38
g446
sI39
g437
sI40
g476
sI41
g468
sI42
g460
sI43
g415
sI44
g510
sI45
g501
sI46
g540
sI47
g532
sI48
g524
sI49
g492
sI50
g407
sI51
g398
sI52
g584
sI53
g603
sI54
g594
sI55
g575
sI56
g567
sI57
g558
sI58
g646
sI59
g659
sI60
g681
sI61
g672
sI62
g637
sI63
g705
sI64
g696
sI65
g716
sI66
g629
sI67
g620
sI68
g389
sI69
g210
sI70
g730
sI71
g2037
sI72
g2047
sI73
g1439
sI74
g1449
sI75
g1465
sI76
g1077
sI77
g1087
sI78
g1097
sI79
g1107
sI80
g1116
sI81
g1478
sI82
g1494
sI83
g1504
sI84
g1520
sI85
g1530
sI86
g1546
sI87
g1559
sI88
g1571
sI89
g1581
sI90
g1590
sI91
g1336
sI92
g1346
sI93
g1125
sI94
g1606
sI95
g1618
sI96
g1633
sI97
g1645
sI98
g1654
sI99
g1666
sI100
g1681
sI101
g1693
sI102
g1703
sI103
g1712
sI104
g1722
sI105
g1734
sI106
g1744
sI107
g2057
sI108
g2067
sI109
g1760
sI110
g1770
sI111
g1786
sI112
g767
sI113
g789
sI114
g780
sI115
g758
sI116
g749
sI117
g805
sI118
g815
sI119
g828
sI120
g850
sI121
g841
sI122
g861
sI123
g740
sI124
g899
sI125
g918
sI126
g909
sI127
g890
sI128
g942
sI129
g955
sI130
g977
sI131
g968
sI132
g933
sI133
g881
sI134
g993
sI135
g1012
sI136
g1025
sI137
g1003
sI138
g872
sI139
g1043
sI140
g1799
sI141
g1811
sI142
g1820
sI143
g1832
sI144
g1241
sI145
g1263
sI146
g1254
sI147
g1232
sI148
g1275
sI149
g1135
sI150
g1144
sI151
g1153
sI152
g1163
sI153
g1173
sI154
g1183
sI155
g1193
sI156
g1202
sI157
g1847
sI158
g1860
sI159
g1870
sI160
g1883
sI161
g2077
sI162
g2087
sI163
g1893
sI164
g1905
sI165
g1914
sI166
g1926
sI167
g1941
sI168
g1951
sI169
g1967
sI170
g1980
sI171
g1990
sI172
g2000
sI173
g2010
sI174
g1356
sI175
g1366
sI176
g1211
sI177
g1221
sI178
g2175
sI179
g1378
sI180
g1390
sI181
g99
sI182
g109
sI183
g172
sI184
g119
sI185
g181
sI186
g2133
sI187
g2143
sI188
g2255
sI189
g129
sI190
g190
sI191
g2153
sI192
g2163
sI193
g2264
sI194
g2274
sI195
g139
sI196
g199
sI197
g2289
sI198
g2306
sI199
g2316
ssS'root'
p2333
g2316
sS'sent'
p2334
(lp2335
g23
aS','
ag2104
ag2189
ag224
ag266
ag300
aS'.'
asb.